(i__main__
LogFile
p0
(dp1
S'_installed_files'
p2
(dp3
S'../../../GaudiCommonSvc/armv7l-fc21-gcc49-opt/libGaudiCommonSvc.so'
p4
S'../../InstallArea/armv7l-fc21-gcc49-opt/lib/libGaudiCommonSvc.so'
p5
sS'../../../../GaudiPolicy/cmt/fragments/__init__.py'
p6
S'../../InstallArea/armv7l-fc21-gcc49-opt/python/GaudiCommonSvc/__init__.py'
p7
sS'../../../GaudiCommonSvc/armv7l-fc21-gcc49-opt/genConf/GaudiCommonSvc'
p8
(dp9
S'../../../../GaudiCommonSvc/armv7l-fc21-gcc49-opt/genConf/GaudiCommonSvc/GaudiCommonSvcConf.py'
p10
S'../../InstallArea/armv7l-fc21-gcc49-opt/python/GaudiCommonSvc/GaudiCommonSvcConf.py'
p11
sssb.