(i__main__
LogFile
p0
(dp1
S'_installed_files'
p2
(dp3
S'../../../GaudiCoreSvc/armv7l-fc21-gcc49-opt/libGaudiCoreSvc.so'
p4
S'../../InstallArea/armv7l-fc21-gcc49-opt/lib/libGaudiCoreSvc.so'
p5
sS'../../../../GaudiPolicy/cmt/fragments/__init__.py'
p6
S'../../InstallArea/armv7l-fc21-gcc49-opt/python/GaudiCoreSvc/__init__.py'
p7
sS'../../../GaudiCoreSvc/armv7l-fc21-gcc49-opt/genConf/GaudiCoreSvc'
p8
(dp9
S'../../../../GaudiCoreSvc/armv7l-fc21-gcc49-opt/genConf/GaudiCoreSvc/GaudiCoreSvcConf.py'
p10
S'../../InstallArea/armv7l-fc21-gcc49-opt/python/GaudiCoreSvc/GaudiCoreSvcConf.py'
p11
sssb.