(i__main__
LogFile
p0
(dp1
S'_installed_files'
p2
(dp3
S'../../../Gaudi/armv7l-fc21-gcc49-opt/Gaudi.exe'
p4
S'../../InstallArea/armv7l-fc21-gcc49-opt/bin/Gaudi.exe'
p5
sS'../../Gaudi/python'
p6
(dp7
S'../../../../Gaudi/python/Gaudi/__init__.py'
p8
S'../../InstallArea/armv7l-fc21-gcc49-opt/python/Gaudi/__init__.py'
p9
sS'../../../../Gaudi/python/Gaudi/CommonGaudiConfigurables.py'
p10
S'../../InstallArea/armv7l-fc21-gcc49-opt/python/Gaudi/CommonGaudiConfigurables.py'
p11
sS'../../../Gaudi/python/Configurables.py'
p12
S'../../InstallArea/armv7l-fc21-gcc49-opt/python/Configurables.py'
p13
sS'../../../../Gaudi/python/Gaudi/Configuration.py'
p14
S'../../InstallArea/armv7l-fc21-gcc49-opt/python/Gaudi/Configuration.py'
p15
sS'../../../../Gaudi/python/Gaudi/Main.py'
p16
S'../../InstallArea/armv7l-fc21-gcc49-opt/python/Gaudi/Main.py'
p17
sssb.