(i__main__
LogFile
p0
(dp1
S'_installed_files'
p2
(dp3
S'../../../../GaudiPolicy/cmt/fragments/__init__.py'
p4
S'../../InstallArea/armv7l-fc21-gcc49-opt/python/GaudiGSL/__init__.py'
p5
sS'../../../GaudiGSL/GaudiGSL'
p6
(dp7
S'../../../../GaudiGSL/GaudiGSL/IGslSvc.h'
p8
S'../../InstallArea/armv7l-fc21-gcc49-opt/include/GaudiGSL/IGslSvc.h'
p9
sS'../../../../GaudiGSL/GaudiGSL/GslErrorHandlers.h'
p10
S'../../InstallArea/armv7l-fc21-gcc49-opt/include/GaudiGSL/GslErrorHandlers.h'
p11
sS'../../../../GaudiGSL/GaudiGSL/IFuncMinimum.h'
p12
S'../../InstallArea/armv7l-fc21-gcc49-opt/include/GaudiGSL/IFuncMinimum.h'
p13
sS'../../../../GaudiGSL/GaudiGSL/GaudiGSL.h'
p14
S'../../InstallArea/armv7l-fc21-gcc49-opt/include/GaudiGSL/GaudiGSL.h'
p15
sS'../../../../GaudiGSL/GaudiGSL/IGslErrorHandler.h'
p16
S'../../InstallArea/armv7l-fc21-gcc49-opt/include/GaudiGSL/IGslErrorHandler.h'
p17
sS'../../../../GaudiGSL/GaudiGSL/GslError.h'
p18
S'../../InstallArea/armv7l-fc21-gcc49-opt/include/GaudiGSL/GslError.h'
p19
sS'../../../../GaudiGSL/GaudiGSL/IEqSolver.h'
p20
S'../../InstallArea/armv7l-fc21-gcc49-opt/include/GaudiGSL/IEqSolver.h'
p21
ssS'../../../GaudiGSL/armv7l-fc21-gcc49-opt/libGaudiGSL.so'
p22
S'../../InstallArea/armv7l-fc21-gcc49-opt/lib/libGaudiGSL.so'
p23
sS'../../../GaudiGSL/armv7l-fc21-gcc49-opt/libGaudiGSLMathDict.so'
p24
S'../../InstallArea/armv7l-fc21-gcc49-opt/lib/libGaudiGSLMathDict.so'
p25
sS'../../../GaudiGSL/armv7l-fc21-gcc49-opt/libGaudiGSLLib.so'
p26
S'../../InstallArea/armv7l-fc21-gcc49-opt/lib/libGaudiGSLLib.so'
p27
sS'../../../GaudiGSL/GaudiMath'
p28
(dp29
S'../../../../GaudiGSL/GaudiMath/Splines.h'
p30
S'../../InstallArea/armv7l-fc21-gcc49-opt/include/GaudiMath/Splines.h'
p31
sS'../../../../GaudiGSL/GaudiMath/GSLFunAdapters.h'
p32
S'../../InstallArea/armv7l-fc21-gcc49-opt/include/GaudiMath/GSLFunAdapters.h'
p33
sS'../../../../GaudiGSL/GaudiMath/NumericalIndefiniteIntegral.h'
p34
S'../../InstallArea/armv7l-fc21-gcc49-opt/include/GaudiMath/NumericalIndefiniteIntegral.h'
p35
sS'../../../../GaudiGSL/GaudiMath/Integration.h'
p36
S'../../InstallArea/armv7l-fc21-gcc49-opt/include/GaudiMath/Integration.h'
p37
sS'../../../../GaudiGSL/GaudiMath/Interpolation.h'
p38
S'../../InstallArea/armv7l-fc21-gcc49-opt/include/GaudiMath/Interpolation.h'
p39
sS'../../../../GaudiGSL/GaudiMath/GaudiMath.h'
p40
S'../../InstallArea/armv7l-fc21-gcc49-opt/include/GaudiMath/GaudiMath.h'
p41
sS'../../../../GaudiGSL/GaudiMath/Adapters.h'
p42
S'../../InstallArea/armv7l-fc21-gcc49-opt/include/GaudiMath/Adapters.h'
p43
sS'../../../../GaudiGSL/GaudiMath/FunAdapters.h'
p44
S'../../InstallArea/armv7l-fc21-gcc49-opt/include/GaudiMath/FunAdapters.h'
p45
sS'../../../../GaudiGSL/GaudiMath/Integral.h'
p46
S'../../InstallArea/armv7l-fc21-gcc49-opt/include/GaudiMath/Integral.h'
p47
sS'../../../../GaudiGSL/GaudiMath/NumericalDefiniteIntegral.h'
p48
S'../../InstallArea/armv7l-fc21-gcc49-opt/include/GaudiMath/NumericalDefiniteIntegral.h'
p49
sS'../../../../GaudiGSL/GaudiMath/Constant.h'
p50
S'../../InstallArea/armv7l-fc21-gcc49-opt/include/GaudiMath/Constant.h'
p51
sS'../../../../GaudiGSL/GaudiMath/IndefiniteIntegral.h'
p52
S'../../InstallArea/armv7l-fc21-gcc49-opt/include/GaudiMath/IndefiniteIntegral.h'
p53
sS'../../../../GaudiGSL/GaudiMath/NumericalDerivative.h'
p54
S'../../InstallArea/armv7l-fc21-gcc49-opt/include/GaudiMath/NumericalDerivative.h'
p55
ssS'../../../GaudiGSL/armv7l-fc21-gcc49-opt/genConf/GaudiGSL'
p56
(dp57
S'../../../../GaudiGSL/armv7l-fc21-gcc49-opt/genConf/GaudiGSL/GaudiGSLConf.py'
p58
S'../../InstallArea/armv7l-fc21-gcc49-opt/python/GaudiGSL/GaudiGSLConf.py'
p59
sssb.