(i__main__
LogFile
p0
(dp1
S'_installed_files'
p2
(dp3
S'../../GaudiProfiling/scripts'
p4
(dp5
S'../../../GaudiProfiling/scripts/intelprofiler'
p6
S'../../InstallArea/armv7l-fc21-gcc49-opt/scripts/intelprofiler'
p7
sS'../../../GaudiProfiling/scripts/bsfl'
p8
S'../../InstallArea/armv7l-fc21-gcc49-opt/scripts/bsfl'
p9
sS'../../../GaudiProfiling/scripts/GaudiProfiler'
p10
S'../../InstallArea/armv7l-fc21-gcc49-opt/scripts/GaudiProfiler'
p11
ssS'../../../GaudiProfiling/armv7l-fc21-gcc49-opt/genConf/GaudiProfiling'
p12
(dp13
S'../../../../GaudiProfiling/armv7l-fc21-gcc49-opt/genConf/GaudiProfiling/GaudiGoogleProfilingConf.py'
p14
S'../../InstallArea/armv7l-fc21-gcc49-opt/python/GaudiProfiling/GaudiGoogleProfilingConf.py'
p15
ssS'../../../GaudiProfiling/GaudiProfiling'
p16
(dp17
S'../../../../GaudiProfiling/GaudiProfiling/PfmCodeAnalyser.h'
p18
S'../../InstallArea/armv7l-fc21-gcc49-opt/include/GaudiProfiling/PfmCodeAnalyser.h'
p19
ssS'../../GaudiProfiling/python'
p20
(dp21
S'../../../../GaudiProfiling/python/GaudiProfiling/__init__.py'
p22
S'../../InstallArea/armv7l-fc21-gcc49-opt/python/GaudiProfiling/__init__.py'
p23
sS'../../../../GaudiProfiling/python/GaudiProfiling/GenerateGaudiOpts.py'
p24
S'../../InstallArea/armv7l-fc21-gcc49-opt/python/GaudiProfiling/GenerateGaudiOpts.py'
p25
ssS'../../../GaudiProfiling/armv7l-fc21-gcc49-opt/GaudiGenProfilingHtml.exe'
p26
S'../../InstallArea/armv7l-fc21-gcc49-opt/bin/GaudiGenProfilingHtml.exe'
p27
sS'../../../GaudiProfiling/armv7l-fc21-gcc49-opt/libGaudiGoogleProfiling.so'
p28
S'../../InstallArea/armv7l-fc21-gcc49-opt/lib/libGaudiGoogleProfiling.so'
p29
ssb.