(i__main__
LogFile
p0
(dp1
S'_installed_files'
p2
(dp3
S'../../../../GaudiPolicy/cmt/fragments/__init__.py'
p4
S'../../InstallArea/armv7l-fc21-gcc49-opt/python/RootCnv/__init__.py'
p5
sS'../../../RootCnv/armv7l-fc21-gcc49-opt/libRootCnvLib.so'
p6
S'../../InstallArea/armv7l-fc21-gcc49-opt/lib/libRootCnvLib.so'
p7
sS'../../../RootCnv/armv7l-fc21-gcc49-opt/libRootCnv.so'
p8
S'../../InstallArea/armv7l-fc21-gcc49-opt/lib/libRootCnv.so'
p9
sS'../../../RootCnv/armv7l-fc21-gcc49-opt/extract_event.exe'
p10
S'../../InstallArea/armv7l-fc21-gcc49-opt/bin/extract_event.exe'
p11
sS'../../../RootCnv/armv7l-fc21-gcc49-opt/genConf/RootCnv'
p12
(dp13
S'../../../../RootCnv/armv7l-fc21-gcc49-opt/genConf/RootCnv/RootCnvConf.py'
p14
S'../../InstallArea/armv7l-fc21-gcc49-opt/python/RootCnv/RootCnvConf.py'
p15
ssS'../../../RootCnv/RootCnv'
p16
(dp17
S'../../../../RootCnv/RootCnv/PoolClasses.h'
p18
S'../../InstallArea/armv7l-fc21-gcc49-opt/include/RootCnv/PoolClasses.h'
p19
sS'../../../../RootCnv/RootCnv/RootRefs.h'
p20
S'../../InstallArea/armv7l-fc21-gcc49-opt/include/RootCnv/RootRefs.h'
p21
sS'../../../../RootCnv/RootCnv/RootDataConnection.h'
p22
S'../../InstallArea/armv7l-fc21-gcc49-opt/include/RootCnv/RootDataConnection.h'
p23
sS'../../../../RootCnv/RootCnv/RootEvtSelector.h'
p24
S'../../InstallArea/armv7l-fc21-gcc49-opt/include/RootCnv/RootEvtSelector.h'
p25
sS'../../../../RootCnv/RootCnv/RootStatCnv.h'
p26
S'../../InstallArea/armv7l-fc21-gcc49-opt/include/RootCnv/RootStatCnv.h'
p27
sS'../../../../RootCnv/RootCnv/RootPerfMonSvc.h'
p28
S'../../InstallArea/armv7l-fc21-gcc49-opt/include/RootCnv/RootPerfMonSvc.h'
p29
sS'../../../../RootCnv/RootCnv/RootDirectoryCnv.h'
p30
S'../../InstallArea/armv7l-fc21-gcc49-opt/include/RootCnv/RootDirectoryCnv.h'
p31
sS'../../../../RootCnv/RootCnv/SysProcStat.h'
p32
S'../../InstallArea/armv7l-fc21-gcc49-opt/include/RootCnv/SysProcStat.h'
p33
sS'../../../../RootCnv/RootCnv/RootCnvSvc.h'
p34
S'../../InstallArea/armv7l-fc21-gcc49-opt/include/RootCnv/RootCnvSvc.h'
p35
sS'../../../../RootCnv/RootCnv/RootConverter.h'
p36
S'../../InstallArea/armv7l-fc21-gcc49-opt/include/RootCnv/RootConverter.h'
p37
sS'../../../../RootCnv/RootCnv/RootAddress.h'
p38
S'../../InstallArea/armv7l-fc21-gcc49-opt/include/RootCnv/RootAddress.h'
p39
sS'../../../../RootCnv/RootCnv/RootDatabaseCnv.h'
p40
S'../../InstallArea/armv7l-fc21-gcc49-opt/include/RootCnv/RootDatabaseCnv.h'
p41
sS'../../../../RootCnv/RootCnv/RootNTupleCnv.h'
p42
S'../../InstallArea/armv7l-fc21-gcc49-opt/include/RootCnv/RootNTupleCnv.h'
p43
ssS'../../../RootCnv/armv7l-fc21-gcc49-opt/gaudi_merge.exe'
p44
S'../../InstallArea/armv7l-fc21-gcc49-opt/bin/gaudi_merge.exe'
p45
sS'../../../RootCnv/armv7l-fc21-gcc49-opt/libRootCnvDict.so'
p46
S'../../InstallArea/armv7l-fc21-gcc49-opt/lib/libRootCnvDict.so'
p47
ssb.