(i__main__
LogFile
p0
(dp1
S'_installed_files'
p2
(dp3
S'../../../GaudiExamples/GaudiExamples'
p4
(dp5
S'../../../../GaudiExamples/GaudiExamples/MyTrack.h'
p6
S'../../InstallArea/armv7l-fc21-gcc49-opt/include/GaudiExamples/MyTrack.h'
p7
sS'../../../../GaudiExamples/GaudiExamples/Event.h'
p8
S'../../InstallArea/armv7l-fc21-gcc49-opt/include/GaudiExamples/Event.h'
p9
sS'../../../../GaudiExamples/GaudiExamples/Counter.h'
p10
S'../../InstallArea/armv7l-fc21-gcc49-opt/include/GaudiExamples/Counter.h'
p11
sS'../../../../GaudiExamples/GaudiExamples/MyVertex.h'
p12
S'../../InstallArea/armv7l-fc21-gcc49-opt/include/GaudiExamples/MyVertex.h'
p13
sS'../../../../GaudiExamples/GaudiExamples/Collision.h'
p14
S'../../InstallArea/armv7l-fc21-gcc49-opt/include/GaudiExamples/Collision.h'
p15
ssS'../../../GaudiExamples/armv7l-fc21-gcc49-opt/libGaudiExamplesLib.so'
p16
S'../../InstallArea/armv7l-fc21-gcc49-opt/lib/libGaudiExamplesLib.so'
p17
sS'../../../../GaudiExamples/armv7l-fc21-gcc49-opt/PyExample.so'
p18
S'../../InstallArea/armv7l-fc21-gcc49-opt/python/lib-dynload/PyExample.so'
p19
sS'../../GaudiExamples/python'
p20
(dp21
S'../../../../GaudiExamples/python/GaudiExamples/__init__.py'
p22
S'../../InstallArea/armv7l-fc21-gcc49-opt/python/GaudiExamples/__init__.py'
p23
sS'../../../../GaudiExamples/python/GaudiExamples/Configuration.py'
p24
S'../../InstallArea/armv7l-fc21-gcc49-opt/python/GaudiExamples/Configuration.py'
p25
ssS'../../../GaudiExamples/armv7l-fc21-gcc49-opt/genConf/GaudiExamples'
p26
(dp27
S'../../../../GaudiExamples/armv7l-fc21-gcc49-opt/genConf/GaudiExamples/GaudiExamplesConf.py'
p28
S'../../InstallArea/armv7l-fc21-gcc49-opt/python/GaudiExamples/GaudiExamplesConf.py'
p29
ssS'../../../GaudiExamples/armv7l-fc21-gcc49-opt/Allocator.exe'
p30
S'../../InstallArea/armv7l-fc21-gcc49-opt/bin/Allocator.exe'
p31
sS'../../../GaudiExamples/armv7l-fc21-gcc49-opt/libGaudiExamples.so'
p32
S'../../InstallArea/armv7l-fc21-gcc49-opt/lib/libGaudiExamples.so'
p33
sS'../../../GaudiExamples/armv7l-fc21-gcc49-opt/libGaudiExamplesDict.so'
p34
S'../../InstallArea/armv7l-fc21-gcc49-opt/lib/libGaudiExamplesDict.so'
p35
ssb.