(i__main__
LogFile
p0
(dp1
S'_installed_files'
p2
(dp3
S'../../GaudiPluginService/python'
p4
(dp5
S'../../../../GaudiPluginService/python/GaudiPluginService/cpluginsvc.py'
p6
S'../../InstallArea/armv7l-fc21-gcc49-opt/python/GaudiPluginService/cpluginsvc.py'
p7
sS'../../../../GaudiPluginService/python/GaudiPluginService/__init__.py'
p8
S'../../InstallArea/armv7l-fc21-gcc49-opt/python/GaudiPluginService/__init__.py'
p9
ssS'../../../GaudiPluginService/Gaudi'
p10
(dp11
S'../../../../../GaudiPluginService/Gaudi/Details/PluginServiceDetails.h'
p12
S'../../InstallArea/armv7l-fc21-gcc49-opt/include/Gaudi/Details/PluginServiceDetails.h'
p13
sS'../../../../GaudiPluginService/Gaudi/PluginService.h'
p14
S'../../InstallArea/armv7l-fc21-gcc49-opt/include/Gaudi/PluginService.h'
p15
ssS'../../../GaudiPluginService/armv7l-fc21-gcc49-opt/listcomponents.exe'
p16
S'../../InstallArea/armv7l-fc21-gcc49-opt/bin/listcomponents.exe'
p17
sS'../../../GaudiPluginService/armv7l-fc21-gcc49-opt/libGaudiPluginService.so'
p18
S'../../InstallArea/armv7l-fc21-gcc49-opt/lib/libGaudiPluginService.so'
p19
ssb.