(i__main__
LogFile
p0
(dp1
S'_installed_files'
p2
(dp3
S'../../GaudiMP/scripts'
p4
(dp5
S'../../../GaudiMP/scripts/compareOutputFiles.py'
p6
S'../../InstallArea/armv7l-fc21-gcc49-opt/scripts/compareOutputFiles.py'
p7
sS'../../../GaudiMP/scripts/compareRootHistos.py'
p8
S'../../InstallArea/armv7l-fc21-gcc49-opt/scripts/compareRootHistos.py'
p9
ssS'../../../GaudiMP/armv7l-fc21-gcc49-opt/libGaudiMP.so'
p10
S'../../InstallArea/armv7l-fc21-gcc49-opt/lib/libGaudiMP.so'
p11
sS'../../../GaudiMP/armv7l-fc21-gcc49-opt/libGaudiMPLib.so'
p12
S'../../InstallArea/armv7l-fc21-gcc49-opt/lib/libGaudiMPLib.so'
p13
sS'../../../GaudiMP/armv7l-fc21-gcc49-opt/genConf/GaudiMP'
p14
(dp15
S'../../../../GaudiMP/armv7l-fc21-gcc49-opt/genConf/GaudiMP/GaudiMPConf.py'
p16
S'../../InstallArea/armv7l-fc21-gcc49-opt/python/GaudiMP/GaudiMPConf.py'
p17
ssS'../../GaudiMP/python'
p18
(dp19
S'../../../../GaudiMP/python/GaudiMP/GMPBase.py'
p20
S'../../InstallArea/armv7l-fc21-gcc49-opt/python/GaudiMP/GMPBase.py'
p21
sS'../../../../GaudiMP/python/GaudiMP/Parallel.py'
p22
S'../../InstallArea/armv7l-fc21-gcc49-opt/python/GaudiMP/Parallel.py'
p23
sS'../../../../GaudiMP/python/GaudiMP/pTools.py'
p24
S'../../InstallArea/armv7l-fc21-gcc49-opt/python/GaudiMP/pTools.py'
p25
sS'../../../../GaudiMP/python/GaudiMP/__init__.py'
p26
S'../../InstallArea/armv7l-fc21-gcc49-opt/python/GaudiMP/__init__.py'
p27
sS'../../../../GaudiMP/python/GaudiMP/FdsRegistry.py'
p28
S'../../InstallArea/armv7l-fc21-gcc49-opt/python/GaudiMP/FdsRegistry.py'
p29
sS'../../../../GaudiMP/python/GaudiMP/IoRegistry.py'
p30
S'../../InstallArea/armv7l-fc21-gcc49-opt/python/GaudiMP/IoRegistry.py'
p31
ssS'../../../GaudiMP/armv7l-fc21-gcc49-opt/libGaudiMPDict.so'
p32
S'../../InstallArea/armv7l-fc21-gcc49-opt/lib/libGaudiMPDict.so'
p33
ssb.