(i__main__
LogFile
p0
(dp1
S'_installed_files'
p2
(dp3
S'../../GaudiSvc/python'
p4
(dp5
S'../../../../GaudiSvc/python/GaudiSvc/__init__.py'
p6
S'../../InstallArea/armv7l-fc21-gcc49-opt/python/GaudiSvc/__init__.py'
p7
sS'../../../../GaudiSvc/python/GaudiSvc/ExtraModules.py'
p8
S'../../InstallArea/armv7l-fc21-gcc49-opt/python/GaudiSvc/ExtraModules.py'
p9
ssS'../../../GaudiSvc/armv7l-fc21-gcc49-opt/genConf/GaudiSvc'
p10
(dp11
S'../../../../GaudiSvc/armv7l-fc21-gcc49-opt/genConf/GaudiSvc/GaudiSvcConf.py'
p12
S'../../InstallArea/armv7l-fc21-gcc49-opt/python/GaudiSvc/GaudiSvcConf.py'
p13
sS'../../../../GaudiSvc/armv7l-fc21-gcc49-opt/genConf/GaudiSvc/GaudiSvcTestConf.py'
p14
S'../../InstallArea/armv7l-fc21-gcc49-opt/python/GaudiSvc/GaudiSvcTestConf.py'
p15
ssS'../../../GaudiSvc/armv7l-fc21-gcc49-opt/libGaudiSvcTest.so'
p16
S'../../InstallArea/armv7l-fc21-gcc49-opt/lib/libGaudiSvcTest.so'
p17
sS'../../../GaudiSvc/armv7l-fc21-gcc49-opt/libGaudiSvc.so'
p18
S'../../InstallArea/armv7l-fc21-gcc49-opt/lib/libGaudiSvc.so'
p19
ssb.