(i__main__
LogFile
p0
(dp1
S'_installed_files'
p2
(dp3
S'../../../GaudiPython/armv7l-fc21-gcc49-opt/genConf/GaudiPython'
p4
(dp5
S'../../../../GaudiPython/armv7l-fc21-gcc49-opt/genConf/GaudiPython/GaudiPythonConf.py'
p6
S'../../InstallArea/armv7l-fc21-gcc49-opt/python/GaudiPython/GaudiPythonConf.py'
p7
ssS'../../../GaudiPython/armv7l-fc21-gcc49-opt/libGaudiPythonDict.so'
p8
S'../../InstallArea/armv7l-fc21-gcc49-opt/lib/libGaudiPythonDict.so'
p9
sS'../../../GaudiPython/armv7l-fc21-gcc49-opt/libGaudiPython.so'
p10
S'../../InstallArea/armv7l-fc21-gcc49-opt/lib/libGaudiPython.so'
p11
sS'../../../GaudiPython/GaudiPython'
p12
(dp13
S'../../../../GaudiPython/GaudiPython/Vector.h'
p14
S'../../InstallArea/armv7l-fc21-gcc49-opt/include/GaudiPython/Vector.h'
p15
sS'../../../../GaudiPython/GaudiPython/CallbackStreamBuf.h'
p16
S'../../InstallArea/armv7l-fc21-gcc49-opt/include/GaudiPython/CallbackStreamBuf.h'
p17
sS'../../../../GaudiPython/GaudiPython/PyROOTPickle.h'
p18
S'../../InstallArea/armv7l-fc21-gcc49-opt/include/GaudiPython/PyROOTPickle.h'
p19
sS'../../../../GaudiPython/GaudiPython/Helpers.h'
p20
S'../../InstallArea/armv7l-fc21-gcc49-opt/include/GaudiPython/Helpers.h'
p21
sS'../../../../GaudiPython/GaudiPython/Interface.h'
p22
S'../../InstallArea/armv7l-fc21-gcc49-opt/include/GaudiPython/Interface.h'
p23
sS'../../../../GaudiPython/GaudiPython/GaudiPython.h'
p24
S'../../InstallArea/armv7l-fc21-gcc49-opt/include/GaudiPython/GaudiPython.h'
p25
sS'../../../../GaudiPython/GaudiPython/AlgDecorators.h'
p26
S'../../InstallArea/armv7l-fc21-gcc49-opt/include/GaudiPython/AlgDecorators.h'
p27
sS'../../../../GaudiPython/GaudiPython/TupleDecorator.h'
p28
S'../../InstallArea/armv7l-fc21-gcc49-opt/include/GaudiPython/TupleDecorator.h'
p29
sS'../../../../GaudiPython/GaudiPython/TESSerializer.h'
p30
S'../../InstallArea/armv7l-fc21-gcc49-opt/include/GaudiPython/TESSerializer.h'
p31
sS'../../../../GaudiPython/GaudiPython/Algorithm.h'
p32
S'../../InstallArea/armv7l-fc21-gcc49-opt/include/GaudiPython/Algorithm.h'
p33
sS'../../../../GaudiPython/GaudiPython/HistoDecorator.h'
p34
S'../../InstallArea/armv7l-fc21-gcc49-opt/include/GaudiPython/HistoDecorator.h'
p35
sS'../../../../GaudiPython/GaudiPython/Printer.h'
p36
S'../../InstallArea/armv7l-fc21-gcc49-opt/include/GaudiPython/Printer.h'
p37
ssS'../../GaudiPython/python'
p38
(dp39
S'../../../../GaudiPython/python/GaudiPython/Persistency.py'
p40
S'../../InstallArea/armv7l-fc21-gcc49-opt/python/GaudiPython/Persistency.py'
p41
sS'../../../GaudiPython/python/TupleUtils.py'
p42
S'../../InstallArea/armv7l-fc21-gcc49-opt/python/TupleUtils.py'
p43
sS'../../../../GaudiPython/python/GaudiPython/HistoUtils.py'
p44
S'../../InstallArea/armv7l-fc21-gcc49-opt/python/GaudiPython/HistoUtils.py'
p45
sS'../../../../GaudiPython/python/GaudiPython/__init__.py'
p46
S'../../InstallArea/armv7l-fc21-gcc49-opt/python/GaudiPython/__init__.py'
p47
sS'../../../GaudiPython/python/gaudimodule.py'
p48
S'../../InstallArea/armv7l-fc21-gcc49-opt/python/gaudimodule.py'
p49
sS'../../../../GaudiPython/python/GaudiPython/Bindings.py'
p50
S'../../InstallArea/armv7l-fc21-gcc49-opt/python/GaudiPython/Bindings.py'
p51
sS'../../../GaudiPython/python/HistoUtils.py'
p52
S'../../InstallArea/armv7l-fc21-gcc49-opt/python/HistoUtils.py'
p53
sS'../../../GaudiPython/python/GaudiAlgs.py'
p54
S'../../InstallArea/armv7l-fc21-gcc49-opt/python/GaudiAlgs.py'
p55
sS'../../../../GaudiPython/python/GaudiPython/GaudiAlgs.py'
p56
S'../../InstallArea/armv7l-fc21-gcc49-opt/python/GaudiPython/GaudiAlgs.py'
p57
sS'../../../../GaudiPython/python/GaudiPython/GaudiHandles.py'
p58
S'../../InstallArea/armv7l-fc21-gcc49-opt/python/GaudiPython/GaudiHandles.py'
p59
sS'../../../../GaudiPython/python/GaudiPython/Pythonizations.py'
p60
S'../../InstallArea/armv7l-fc21-gcc49-opt/python/GaudiPython/Pythonizations.py'
p61
sS'../../../../GaudiPython/python/GaudiPython/TupleUtils.py'
p62
S'../../InstallArea/armv7l-fc21-gcc49-opt/python/GaudiPython/TupleUtils.py'
p63
ssS'../../../GaudiPython/armv7l-fc21-gcc49-opt/libGaudiPythonLib.so'
p64
S'../../InstallArea/armv7l-fc21-gcc49-opt/lib/libGaudiPythonLib.so'
p65
ssb.