(i__main__
LogFile
p0
(dp1
S'_installed_files'
p2
(dp3
S'../../../RootHistCnv/armv7l-fc21-gcc49-opt/libRootHistCnv.so'
p4
S'../../InstallArea/armv7l-fc21-gcc49-opt/lib/libRootHistCnv.so'
p5
sS'../../../../GaudiPolicy/cmt/fragments/__init__.py'
p6
S'../../InstallArea/armv7l-fc21-gcc49-opt/python/RootHistCnv/__init__.py'
p7
sS'../../../RootHistCnv/armv7l-fc21-gcc49-opt/genConf/RootHistCnv'
p8
(dp9
S'../../../../RootHistCnv/armv7l-fc21-gcc49-opt/genConf/RootHistCnv/RootHistCnvConf.py'
p10
S'../../InstallArea/armv7l-fc21-gcc49-opt/python/RootHistCnv/RootHistCnvConf.py'
p11
sssb.