(i__main__
LogFile
p0
(dp1
S'_installed_files'
p2
(dp3
S'../../../GaudiUtils/armv7l-fc21-gcc49-opt/libGaudiUtilsLib.so'
p4
S'../../InstallArea/armv7l-fc21-gcc49-opt/lib/libGaudiUtilsLib.so'
p5
sS'../../../GaudiUtils/armv7l-fc21-gcc49-opt/genConf/GaudiUtils'
p6
(dp7
S'../../../../GaudiUtils/armv7l-fc21-gcc49-opt/genConf/GaudiUtils/GaudiUtilsConf.py'
p8
S'../../InstallArea/armv7l-fc21-gcc49-opt/python/GaudiUtils/GaudiUtilsConf.py'
p9
ssS'../../../GaudiUtils/GaudiUtils'
p10
(dp11
S'../../../../GaudiUtils/GaudiUtils/HistoStrings.h'
p12
S'../../InstallArea/armv7l-fc21-gcc49-opt/include/GaudiUtils/HistoStrings.h'
p13
sS'../../../../GaudiUtils/GaudiUtils/HistoParsers.h'
p14
S'../../InstallArea/armv7l-fc21-gcc49-opt/include/GaudiUtils/HistoParsers.h'
p15
sS'../../../../GaudiUtils/GaudiUtils/Aida2ROOT.h'
p16
S'../../InstallArea/armv7l-fc21-gcc49-opt/include/GaudiUtils/Aida2ROOT.h'
p17
sS'../../../../GaudiUtils/GaudiUtils/Histo2String.h'
p18
S'../../InstallArea/armv7l-fc21-gcc49-opt/include/GaudiUtils/Histo2String.h'
p19
sS'../../../../GaudiUtils/GaudiUtils/IIODataManager.h'
p20
S'../../InstallArea/armv7l-fc21-gcc49-opt/include/GaudiUtils/IIODataManager.h'
p21
sS'../../../../GaudiUtils/GaudiUtils/HistoLabels.h'
p22
S'../../InstallArea/armv7l-fc21-gcc49-opt/include/GaudiUtils/HistoLabels.h'
p23
sS'../../../../GaudiUtils/GaudiUtils/HistoXML.h'
p24
S'../../InstallArea/armv7l-fc21-gcc49-opt/include/GaudiUtils/HistoXML.h'
p25
sS'../../../../GaudiUtils/GaudiUtils/NamedRange.h'
p26
S'../../InstallArea/armv7l-fc21-gcc49-opt/include/GaudiUtils/NamedRange.h'
p27
sS'../../../../GaudiUtils/GaudiUtils/HistoStats.h'
p28
S'../../InstallArea/armv7l-fc21-gcc49-opt/include/GaudiUtils/HistoStats.h'
p29
sS'../../../../GaudiUtils/GaudiUtils/HistoTableFormat.h'
p30
S'../../InstallArea/armv7l-fc21-gcc49-opt/include/GaudiUtils/HistoTableFormat.h'
p31
sS'../../../../GaudiUtils/GaudiUtils/ISignalMonitor.h'
p32
S'../../InstallArea/armv7l-fc21-gcc49-opt/include/GaudiUtils/ISignalMonitor.h'
p33
sS'../../../../GaudiUtils/GaudiUtils/IFileCatalog.h'
p34
S'../../InstallArea/armv7l-fc21-gcc49-opt/include/GaudiUtils/IFileCatalog.h'
p35
sS'../../../../GaudiUtils/GaudiUtils/IFileCatalogMgr.h'
p36
S'../../InstallArea/armv7l-fc21-gcc49-opt/include/GaudiUtils/IFileCatalogMgr.h'
p37
sS'../../../../GaudiUtils/GaudiUtils/Range.h'
p38
S'../../InstallArea/armv7l-fc21-gcc49-opt/include/GaudiUtils/Range.h'
p39
sS'../../../../GaudiUtils/GaudiUtils/RegEx.h'
p40
S'../../InstallArea/armv7l-fc21-gcc49-opt/include/GaudiUtils/RegEx.h'
p41
sS'../../../../GaudiUtils/GaudiUtils/HistoDump.h'
p42
S'../../InstallArea/armv7l-fc21-gcc49-opt/include/GaudiUtils/HistoDump.h'
p43
ssS'../../../../GaudiPolicy/cmt/fragments/__init__.py'
p44
S'../../InstallArea/armv7l-fc21-gcc49-opt/python/GaudiUtils/__init__.py'
p45
sS'../../../GaudiUtils/armv7l-fc21-gcc49-opt/libGaudiUtils.so'
p46
S'../../InstallArea/armv7l-fc21-gcc49-opt/lib/libGaudiUtils.so'
p47
ssb.