(i__main__
LogFile
p0
(dp1
S'_installed_files'
p2
(dp3
S'../../../GaudiKernel/GaudiKernel'
p4
(dp5
S'../../../../GaudiKernel/GaudiKernel/ChronoEntity.h'
p6
S'../../InstallArea/armv7l-fc21-gcc49-opt/include/GaudiKernel/ChronoEntity.h'
p7
sS'../../../../GaudiKernel/GaudiKernel/Converter.h'
p8
S'../../InstallArea/armv7l-fc21-gcc49-opt/include/GaudiKernel/Converter.h'
p9
sS'../../../../GaudiKernel/GaudiKernel/IDODAlgMapper.h'
p10
S'../../InstallArea/armv7l-fc21-gcc49-opt/include/GaudiKernel/IDODAlgMapper.h'
p11
sS'../../../../GaudiKernel/GaudiKernel/Time.h'
p12
S'../../InstallArea/armv7l-fc21-gcc49-opt/include/GaudiKernel/Time.h'
p13
sS'../../../../GaudiKernel/GaudiKernel/Guards.h'
p14
S'../../InstallArea/armv7l-fc21-gcc49-opt/include/GaudiKernel/Guards.h'
p15
sS'../../../../GaudiKernel/GaudiKernel/IDataStoreLeaves.h'
p16
S'../../InstallArea/armv7l-fc21-gcc49-opt/include/GaudiKernel/IDataStoreLeaves.h'
p17
sS'../../../../GaudiKernel/GaudiKernel/SystemOfUnits.h'
p18
S'../../InstallArea/armv7l-fc21-gcc49-opt/include/GaudiKernel/SystemOfUnits.h'
p19
sS'../../../../GaudiKernel/GaudiKernel/Parsers.icpp'
p20
S'../../InstallArea/armv7l-fc21-gcc49-opt/include/GaudiKernel/Parsers.icpp'
p21
sS'../../../../GaudiKernel/GaudiKernel/HistogramBase.h'
p22
S'../../InstallArea/armv7l-fc21-gcc49-opt/include/GaudiKernel/HistogramBase.h'
p23
sS'../../../../GaudiKernel/GaudiKernel/IMagneticFieldSvc.h'
p24
S'../../InstallArea/armv7l-fc21-gcc49-opt/include/GaudiKernel/IMagneticFieldSvc.h'
p25
sS'../../../../GaudiKernel/GaudiKernel/cbrt.h'
p26
S'../../InstallArea/armv7l-fc21-gcc49-opt/include/GaudiKernel/cbrt.h'
p27
sS'../../../../GaudiKernel/GaudiKernel/PropertyList.h'
p28
S'../../InstallArea/armv7l-fc21-gcc49-opt/include/GaudiKernel/PropertyList.h'
p29
sS'../../../../GaudiKernel/GaudiKernel/PropertyCallbackFunctor.h'
p30
S'../../InstallArea/armv7l-fc21-gcc49-opt/include/GaudiKernel/PropertyCallbackFunctor.h'
p31
sS'../../../../GaudiKernel/GaudiKernel/IClassManager.h'
p32
S'../../InstallArea/armv7l-fc21-gcc49-opt/include/GaudiKernel/IClassManager.h'
p33
sS'../../../../GaudiKernel/GaudiKernel/ComponentManager.h'
p34
S'../../InstallArea/armv7l-fc21-gcc49-opt/include/GaudiKernel/ComponentManager.h'
p35
sS'../../../../GaudiKernel/GaudiKernel/PhysicalConstants.h'
p36
S'../../InstallArea/armv7l-fc21-gcc49-opt/include/GaudiKernel/PhysicalConstants.h'
p37
sS'../../../../GaudiKernel/GaudiKernel/IJobOptionsSvc.h'
p38
S'../../InstallArea/armv7l-fc21-gcc49-opt/include/GaudiKernel/IJobOptionsSvc.h'
p39
sS'../../../../GaudiKernel/GaudiKernel/SvcFactory.h'
p40
S'../../InstallArea/armv7l-fc21-gcc49-opt/include/GaudiKernel/SvcFactory.h'
p41
sS'../../../../GaudiKernel/GaudiKernel/IIssueLogger.h'
p42
S'../../InstallArea/armv7l-fc21-gcc49-opt/include/GaudiKernel/IIssueLogger.h'
p43
sS'../../../../GaudiKernel/GaudiKernel/ITHistSvc.h'
p44
S'../../InstallArea/armv7l-fc21-gcc49-opt/include/GaudiKernel/ITHistSvc.h'
p45
sS'../../../../GaudiKernel/GaudiKernel/Time.icpp'
p46
S'../../InstallArea/armv7l-fc21-gcc49-opt/include/GaudiKernel/Time.icpp'
p47
sS'../../../../GaudiKernel/GaudiKernel/IDODNodeMapper.h'
p48
S'../../InstallArea/armv7l-fc21-gcc49-opt/include/GaudiKernel/IDODNodeMapper.h'
p49
sS'../../../../GaudiKernel/GaudiKernel/IRunable.h'
p50
S'../../InstallArea/armv7l-fc21-gcc49-opt/include/GaudiKernel/IRunable.h'
p51
sS'../../../../GaudiKernel/GaudiKernel/Vector3DTypes.h'
p52
S'../../InstallArea/armv7l-fc21-gcc49-opt/include/GaudiKernel/Vector3DTypes.h'
p53
sS'../../../../GaudiKernel/GaudiKernel/ModuleInfo.h'
p54
S'../../InstallArea/armv7l-fc21-gcc49-opt/include/GaudiKernel/ModuleInfo.h'
p55
sS'../../../../GaudiKernel/GaudiKernel/IRegistry.h'
p56
S'../../InstallArea/armv7l-fc21-gcc49-opt/include/GaudiKernel/IRegistry.h'
p57
sS'../../../../GaudiKernel/GaudiKernel/ICounterSvc.h'
p58
S'../../InstallArea/armv7l-fc21-gcc49-opt/include/GaudiKernel/ICounterSvc.h'
p59
sS'../../../../GaudiKernel/GaudiKernel/CArrayAsProperty.h'
p60
S'../../InstallArea/armv7l-fc21-gcc49-opt/include/GaudiKernel/CArrayAsProperty.h'
p61
sS'../../../../GaudiKernel/GaudiKernel/IAlgorithm.h'
p62
S'../../InstallArea/armv7l-fc21-gcc49-opt/include/GaudiKernel/IAlgorithm.h'
p63
sS'../../../../GaudiKernel/GaudiKernel/EventSelectorDataStream.h'
p64
S'../../InstallArea/armv7l-fc21-gcc49-opt/include/GaudiKernel/EventSelectorDataStream.h'
p65
sS'../../../../GaudiKernel/GaudiKernel/ServiceLocatorHelper.h'
p66
S'../../InstallArea/armv7l-fc21-gcc49-opt/include/GaudiKernel/ServiceLocatorHelper.h'
p67
sS'../../../../GaudiKernel/GaudiKernel/IIoComponentMgr.h'
p68
S'../../InstallArea/armv7l-fc21-gcc49-opt/include/GaudiKernel/IIoComponentMgr.h'
p69
sS'../../../../GaudiKernel/GaudiKernel/extend_interfaces.h'
p70
S'../../InstallArea/armv7l-fc21-gcc49-opt/include/GaudiKernel/extend_interfaces.h'
p71
sS'../../../../GaudiKernel/GaudiKernel/ISvcLocator.h'
p72
S'../../InstallArea/armv7l-fc21-gcc49-opt/include/GaudiKernel/ISvcLocator.h'
p73
sS'../../../../GaudiKernel/GaudiKernel/KeyedContainer.h'
p74
S'../../InstallArea/armv7l-fc21-gcc49-opt/include/GaudiKernel/KeyedContainer.h'
p75
sS'../../../../GaudiKernel/GaudiKernel/IMonitorSvc.h'
p76
S'../../InstallArea/armv7l-fc21-gcc49-opt/include/GaudiKernel/IMonitorSvc.h'
p77
sS'../../../../GaudiKernel/GaudiKernel/DataSvc.h'
p78
S'../../InstallArea/armv7l-fc21-gcc49-opt/include/GaudiKernel/DataSvc.h'
p79
sS'../../../../GaudiKernel/GaudiKernel/AppReturnCode.h'
p80
S'../../InstallArea/armv7l-fc21-gcc49-opt/include/GaudiKernel/AppReturnCode.h'
p81
sS'../../../../GaudiKernel/GaudiKernel/AlgTool.h'
p82
S'../../InstallArea/armv7l-fc21-gcc49-opt/include/GaudiKernel/AlgTool.h'
p83
sS'../../../../GaudiKernel/GaudiKernel/CommandProperty.h'
p84
S'../../InstallArea/armv7l-fc21-gcc49-opt/include/GaudiKernel/CommandProperty.h'
p85
sS'../../../../GaudiKernel/GaudiKernel/ContainedObject.h'
p86
S'../../InstallArea/armv7l-fc21-gcc49-opt/include/GaudiKernel/ContainedObject.h'
p87
sS'../../../../GaudiKernel/GaudiKernel/ParsersFactory.h'
p88
S'../../InstallArea/armv7l-fc21-gcc49-opt/include/GaudiKernel/ParsersFactory.h'
p89
sS'../../../../GaudiKernel/GaudiKernel/Transform3DTypes.h'
p90
S'../../InstallArea/armv7l-fc21-gcc49-opt/include/GaudiKernel/Transform3DTypes.h'
p91
sS'../../../../GaudiKernel/GaudiKernel/IHistorySvc.h'
p92
S'../../InstallArea/armv7l-fc21-gcc49-opt/include/GaudiKernel/IHistorySvc.h'
p93
sS'../../../../GaudiKernel/GaudiKernel/LoadFactoryEntries.h'
p94
S'../../InstallArea/armv7l-fc21-gcc49-opt/include/GaudiKernel/LoadFactoryEntries.h'
p95
sS'../../../../GaudiKernel/GaudiKernel/IIncidentSvc.h'
p96
S'../../InstallArea/armv7l-fc21-gcc49-opt/include/GaudiKernel/IIncidentSvc.h'
p97
sS'../../../../GaudiKernel/GaudiKernel/System.h'
p98
S'../../InstallArea/armv7l-fc21-gcc49-opt/include/GaudiKernel/System.h'
p99
sS'../../../../GaudiKernel/GaudiKernel/StateMachine.h'
p100
S'../../InstallArea/armv7l-fc21-gcc49-opt/include/GaudiKernel/StateMachine.h'
p101
sS'../../../../GaudiKernel/GaudiKernel/IProperty.h'
p102
S'../../InstallArea/armv7l-fc21-gcc49-opt/include/GaudiKernel/IProperty.h'
p103
sS'../../../../GaudiKernel/GaudiKernel/RefTable.h'
p104
S'../../InstallArea/armv7l-fc21-gcc49-opt/include/GaudiKernel/RefTable.h'
p105
sS'../../../../GaudiKernel/GaudiKernel/SerializeSTLFwd.h'
p106
S'../../InstallArea/armv7l-fc21-gcc49-opt/include/GaudiKernel/SerializeSTLFwd.h'
p107
sS'../../../../GaudiKernel/GaudiKernel/IDataProviderSvc.h'
p108
S'../../InstallArea/armv7l-fc21-gcc49-opt/include/GaudiKernel/IDataProviderSvc.h'
p109
sS'../../../../GaudiKernel/GaudiKernel/Debugger.h'
p110
S'../../InstallArea/armv7l-fc21-gcc49-opt/include/GaudiKernel/Debugger.h'
p111
sS'../../../../GaudiKernel/GaudiKernel/IUpdateable.h'
p112
S'../../InstallArea/armv7l-fc21-gcc49-opt/include/GaudiKernel/IUpdateable.h'
p113
sS'../../../../GaudiKernel/GaudiKernel/ThreadGaudi.h'
p114
S'../../InstallArea/armv7l-fc21-gcc49-opt/include/GaudiKernel/ThreadGaudi.h'
p115
sS'../../../../GaudiKernel/GaudiKernel/ServiceHandle.h'
p116
S'../../InstallArea/armv7l-fc21-gcc49-opt/include/GaudiKernel/ServiceHandle.h'
p117
sS'../../../../GaudiKernel/GaudiKernel/IPersistencySvc.h'
p118
S'../../InstallArea/armv7l-fc21-gcc49-opt/include/GaudiKernel/IPersistencySvc.h'
p119
sS'../../../../GaudiKernel/GaudiKernel/IFileMgr.h'
p120
S'../../InstallArea/armv7l-fc21-gcc49-opt/include/GaudiKernel/IFileMgr.h'
p121
sS'../../../../GaudiKernel/GaudiKernel/IClassInfo.h'
p122
S'../../InstallArea/armv7l-fc21-gcc49-opt/include/GaudiKernel/IClassInfo.h'
p123
sS'../../../../GaudiKernel/GaudiKernel/IVersHistoryObj.h'
p124
S'../../InstallArea/armv7l-fc21-gcc49-opt/include/GaudiKernel/IVersHistoryObj.h'
p125
sS'../../../../GaudiKernel/GaudiKernel/DllMain.icpp'
p126
S'../../InstallArea/armv7l-fc21-gcc49-opt/include/GaudiKernel/DllMain.icpp'
p127
sS'../../../../GaudiKernel/GaudiKernel/IStagerSvc.h'
p128
S'../../InstallArea/armv7l-fc21-gcc49-opt/include/GaudiKernel/IStagerSvc.h'
p129
sS'../../../../GaudiKernel/GaudiKernel/Timing.h'
p130
S'../../InstallArea/armv7l-fc21-gcc49-opt/include/GaudiKernel/Timing.h'
p131
sS'../../../../GaudiKernel/GaudiKernel/IOpaqueAddress.h'
p132
S'../../InstallArea/armv7l-fc21-gcc49-opt/include/GaudiKernel/IOpaqueAddress.h'
p133
sS'../../../../GaudiKernel/GaudiKernel/ObjectContainerBase.h'
p134
S'../../InstallArea/armv7l-fc21-gcc49-opt/include/GaudiKernel/ObjectContainerBase.h'
p135
sS'../../../../GaudiKernel/GaudiKernel/DataObject.h'
p136
S'../../InstallArea/armv7l-fc21-gcc49-opt/include/GaudiKernel/DataObject.h'
p137
sS'../../../../GaudiKernel/GaudiKernel/TypeNameString.h'
p138
S'../../InstallArea/armv7l-fc21-gcc49-opt/include/GaudiKernel/TypeNameString.h'
p139
sS'../../../../GaudiKernel/GaudiKernel/VectorMap.h'
p140
S'../../InstallArea/armv7l-fc21-gcc49-opt/include/GaudiKernel/VectorMap.h'
p141
sS'../../../../GaudiKernel/GaudiKernel/IInspector.h'
p142
S'../../InstallArea/armv7l-fc21-gcc49-opt/include/GaudiKernel/IInspector.h'
p143
sS'../../../../GaudiKernel/GaudiKernel/IAlgTool.h'
p144
S'../../InstallArea/armv7l-fc21-gcc49-opt/include/GaudiKernel/IAlgTool.h'
p145
sS'../../../../GaudiKernel/GaudiKernel/SymmetricMatrixTypes.h'
p146
S'../../InstallArea/armv7l-fc21-gcc49-opt/include/GaudiKernel/SymmetricMatrixTypes.h'
p147
sS'../../../../GaudiKernel/GaudiKernel/Parsers.h'
p148
S'../../InstallArea/armv7l-fc21-gcc49-opt/include/GaudiKernel/Parsers.h'
p149
sS'../../../../GaudiKernel/GaudiKernel/SmartIF.h'
p150
S'../../InstallArea/armv7l-fc21-gcc49-opt/include/GaudiKernel/SmartIF.h'
p151
sS'../../../../GaudiKernel/GaudiKernel/LinkManager.h'
p152
S'../../InstallArea/armv7l-fc21-gcc49-opt/include/GaudiKernel/LinkManager.h'
p153
sS'../../../../GaudiKernel/GaudiKernel/IToolSvc.h'
p154
S'../../InstallArea/armv7l-fc21-gcc49-opt/include/GaudiKernel/IToolSvc.h'
p155
sS'../../../../GaudiKernel/GaudiKernel/StreamBuffer.h'
p156
S'../../InstallArea/armv7l-fc21-gcc49-opt/include/GaudiKernel/StreamBuffer.h'
p157
sS'../../../../GaudiKernel/GaudiKernel/ToolFactory.h'
p158
S'../../InstallArea/armv7l-fc21-gcc49-opt/include/GaudiKernel/ToolFactory.h'
p159
sS'../../../../GaudiKernel/GaudiKernel/ClassID.h'
p160
S'../../InstallArea/armv7l-fc21-gcc49-opt/include/GaudiKernel/ClassID.h'
p161
sS'../../../../GaudiKernel/GaudiKernel/HashMap.h'
p162
S'../../InstallArea/armv7l-fc21-gcc49-opt/include/GaudiKernel/HashMap.h'
p163
sS'../../../../GaudiKernel/GaudiKernel/ContainerFactoryDefs.h'
p164
S'../../InstallArea/armv7l-fc21-gcc49-opt/include/GaudiKernel/ContainerFactoryDefs.h'
p165
sS'../../../../GaudiKernel/GaudiKernel/IPublishSvc.h'
p166
S'../../InstallArea/armv7l-fc21-gcc49-opt/include/GaudiKernel/IPublishSvc.h'
p167
sS'../../../../GaudiKernel/GaudiKernel/Point4DTypes.h'
p168
S'../../InstallArea/armv7l-fc21-gcc49-opt/include/GaudiKernel/Point4DTypes.h'
p169
sS'../../../../GaudiKernel/GaudiKernel/IEventTimeDecoder.h'
p170
S'../../InstallArea/armv7l-fc21-gcc49-opt/include/GaudiKernel/IEventTimeDecoder.h'
p171
sS'../../../../GaudiKernel/GaudiKernel/IDataStoreAgent.h'
p172
S'../../InstallArea/armv7l-fc21-gcc49-opt/include/GaudiKernel/IDataStoreAgent.h'
p173
sS'../../../../GaudiKernel/GaudiKernel/IDataSourceMgr.h'
p174
S'../../InstallArea/armv7l-fc21-gcc49-opt/include/GaudiKernel/IDataSourceMgr.h'
p175
sS'../../../../GaudiKernel/GaudiKernel/IMessageSvc.h'
p176
S'../../InstallArea/armv7l-fc21-gcc49-opt/include/GaudiKernel/IMessageSvc.h'
p177
sS'../../../../GaudiKernel/GaudiKernel/MapBase.h'
p178
S'../../InstallArea/armv7l-fc21-gcc49-opt/include/GaudiKernel/MapBase.h'
p179
sS'../../../../GaudiKernel/GaudiKernel/DataIncident.h'
p180
S'../../InstallArea/armv7l-fc21-gcc49-opt/include/GaudiKernel/DataIncident.h'
p181
sS'../../../../GaudiKernel/GaudiKernel/IStateful.h'
p182
S'../../InstallArea/armv7l-fc21-gcc49-opt/include/GaudiKernel/IStateful.h'
p183
sS'../../../../GaudiKernel/GaudiKernel/SelectStatement.h'
p184
S'../../InstallArea/armv7l-fc21-gcc49-opt/include/GaudiKernel/SelectStatement.h'
p185
sS'../../../../GaudiKernel/GaudiKernel/IDataManagerSvc.h'
p186
S'../../InstallArea/armv7l-fc21-gcc49-opt/include/GaudiKernel/IDataManagerSvc.h'
p187
sS'../../../../GaudiKernel/GaudiKernel/IAppMgrUI.h'
p188
S'../../InstallArea/armv7l-fc21-gcc49-opt/include/GaudiKernel/IAppMgrUI.h'
p189
sS'../../../../GaudiKernel/GaudiKernel/NamedRange.h'
p190
S'../../InstallArea/armv7l-fc21-gcc49-opt/include/GaudiKernel/NamedRange.h'
p191
sS'../../../../GaudiKernel/GaudiKernel/IAddressCreator.h'
p192
S'../../InstallArea/armv7l-fc21-gcc49-opt/include/GaudiKernel/IAddressCreator.h'
p193
sS'../../../../GaudiKernel/GaudiKernel/Selector.h'
p194
S'../../InstallArea/armv7l-fc21-gcc49-opt/include/GaudiKernel/Selector.h'
p195
sS'../../../../GaudiKernel/GaudiKernel/IEvtSelector.h'
p196
S'../../InstallArea/armv7l-fc21-gcc49-opt/include/GaudiKernel/IEvtSelector.h'
p197
sS'../../../../GaudiKernel/GaudiKernel/SmartRefBase.h'
p198
S'../../InstallArea/armv7l-fc21-gcc49-opt/include/GaudiKernel/SmartRefBase.h'
p199
sS'../../../../GaudiKernel/GaudiKernel/PathResolver.h'
p200
S'../../InstallArea/armv7l-fc21-gcc49-opt/include/GaudiKernel/PathResolver.h'
p201
sS'../../../../GaudiKernel/GaudiKernel/AlgToolHistory.h'
p202
S'../../InstallArea/armv7l-fc21-gcc49-opt/include/GaudiKernel/AlgToolHistory.h'
p203
sS'../../../../GaudiKernel/GaudiKernel/SmartDataPtr.h'
p204
S'../../InstallArea/armv7l-fc21-gcc49-opt/include/GaudiKernel/SmartDataPtr.h'
p205
sS'../../../../GaudiKernel/GaudiKernel/DataTypeInfo.h'
p206
S'../../InstallArea/armv7l-fc21-gcc49-opt/include/GaudiKernel/DataTypeInfo.h'
p207
sS'../../../../GaudiKernel/GaudiKernel/IStatusCodeSvc.h'
p208
S'../../InstallArea/armv7l-fc21-gcc49-opt/include/GaudiKernel/IStatusCodeSvc.h'
p209
sS'../../../../GaudiKernel/GaudiKernel/VectorsAsProperty.h'
p210
S'../../InstallArea/armv7l-fc21-gcc49-opt/include/GaudiKernel/VectorsAsProperty.h'
p211
sS'../../../../GaudiKernel/GaudiKernel/extends.h'
p212
S'../../InstallArea/armv7l-fc21-gcc49-opt/include/GaudiKernel/extends.h'
p213
sS'../../../../GaudiKernel/GaudiKernel/IChronoStatSvc.h'
p214
S'../../InstallArea/armv7l-fc21-gcc49-opt/include/GaudiKernel/IChronoStatSvc.h'
p215
sS'../../../../GaudiKernel/GaudiKernel/IFileAccess.h'
p216
S'../../InstallArea/armv7l-fc21-gcc49-opt/include/GaudiKernel/IFileAccess.h'
p217
sS'../../../../GaudiKernel/GaudiKernel/Grammars.h'
p218
S'../../InstallArea/armv7l-fc21-gcc49-opt/include/GaudiKernel/Grammars.h'
p219
sS'../../../../GaudiKernel/GaudiKernel/Chrono.h'
p220
S'../../InstallArea/armv7l-fc21-gcc49-opt/include/GaudiKernel/Chrono.h'
p221
sS'../../../../GaudiKernel/GaudiKernel/IConverter.h'
p222
S'../../InstallArea/armv7l-fc21-gcc49-opt/include/GaudiKernel/IConverter.h'
p223
sS'../../../../GaudiKernel/GaudiKernel/SmartRef.h'
p224
S'../../InstallArea/armv7l-fc21-gcc49-opt/include/GaudiKernel/SmartRef.h'
p225
sS'../../../../GaudiKernel/GaudiKernel/Kernel.h'
p226
S'../../InstallArea/armv7l-fc21-gcc49-opt/include/GaudiKernel/Kernel.h'
p227
sS'../../../../GaudiKernel/GaudiKernel/SystemBase.h'
p228
S'../../InstallArea/armv7l-fc21-gcc49-opt/include/GaudiKernel/SystemBase.h'
p229
sS'../../../../GaudiKernel/GaudiKernel/IAIDATupleSvc.h'
p230
S'../../InstallArea/armv7l-fc21-gcc49-opt/include/GaudiKernel/IAIDATupleSvc.h'
p231
sS'../../../../GaudiKernel/GaudiKernel/IEventProcessor.h'
p232
S'../../InstallArea/armv7l-fc21-gcc49-opt/include/GaudiKernel/IEventProcessor.h'
p233
sS'../../../../GaudiKernel/GaudiKernel/ObjectFactory.h'
p234
S'../../InstallArea/armv7l-fc21-gcc49-opt/include/GaudiKernel/ObjectFactory.h'
p235
sS'../../../../GaudiKernel/GaudiKernel/IAlgManager.h'
p236
S'../../InstallArea/armv7l-fc21-gcc49-opt/include/GaudiKernel/IAlgManager.h'
p237
sS'../../../../GaudiKernel/GaudiKernel/Stat.h'
p238
S'../../InstallArea/armv7l-fc21-gcc49-opt/include/GaudiKernel/Stat.h'
p239
sS'../../../../GaudiKernel/GaudiKernel/SmartDataLocator.h'
p240
S'../../InstallArea/armv7l-fc21-gcc49-opt/include/GaudiKernel/SmartDataLocator.h'
p241
sS'../../../../GaudiKernel/GaudiKernel/ObjectVector.h'
p242
S'../../InstallArea/armv7l-fc21-gcc49-opt/include/GaudiKernel/ObjectVector.h'
p243
sS'../../../../GaudiKernel/GaudiKernel/GaudiHandle.h'
p244
S'../../InstallArea/armv7l-fc21-gcc49-opt/include/GaudiKernel/GaudiHandle.h'
p245
sS'../../../../GaudiKernel/GaudiKernel/ToStream.h'
p246
S'../../InstallArea/armv7l-fc21-gcc49-opt/include/GaudiKernel/ToStream.h'
p247
sS'../../../../GaudiKernel/GaudiKernel/IConversionSvc.h'
p248
S'../../InstallArea/armv7l-fc21-gcc49-opt/include/GaudiKernel/IConversionSvc.h'
p249
sS'../../../../GaudiKernel/GaudiKernel/DataSelectionAgent.h'
p250
S'../../InstallArea/armv7l-fc21-gcc49-opt/include/GaudiKernel/DataSelectionAgent.h'
p251
sS'../../../../GaudiKernel/GaudiKernel/IValidity.h'
p252
S'../../InstallArea/armv7l-fc21-gcc49-opt/include/GaudiKernel/IValidity.h'
p253
sS'../../../../GaudiKernel/GaudiKernel/NTupleImplementation.h'
p254
S'../../InstallArea/armv7l-fc21-gcc49-opt/include/GaudiKernel/NTupleImplementation.h'
p255
sS'../../../../GaudiKernel/GaudiKernel/GaudiException.h'
p256
S'../../InstallArea/armv7l-fc21-gcc49-opt/include/GaudiKernel/GaudiException.h'
p257
sS'../../../../GaudiKernel/GaudiKernel/Property.h'
p258
S'../../InstallArea/armv7l-fc21-gcc49-opt/include/GaudiKernel/Property.h'
p259
sS'../../../../GaudiKernel/GaudiKernel/MinimalEventLoopMgr.h'
p260
S'../../InstallArea/armv7l-fc21-gcc49-opt/include/GaudiKernel/MinimalEventLoopMgr.h'
p261
sS'../../../../GaudiKernel/GaudiKernel/time_r.h'
p262
S'../../InstallArea/armv7l-fc21-gcc49-opt/include/GaudiKernel/time_r.h'
p263
sS'../../../../GaudiKernel/GaudiKernel/boost_allocator.h'
p264
S'../../InstallArea/armv7l-fc21-gcc49-opt/include/GaudiKernel/boost_allocator.h'
p265
sS'../../../../GaudiKernel/GaudiKernel/Service.h'
p266
S'../../InstallArea/armv7l-fc21-gcc49-opt/include/GaudiKernel/Service.h'
p267
sS'../../../../GaudiKernel/GaudiKernel/IExceptionSvc.h'
p268
S'../../InstallArea/armv7l-fc21-gcc49-opt/include/GaudiKernel/IExceptionSvc.h'
p269
sS'../../../../GaudiKernel/GaudiKernel/KeyedTraits.h'
p270
S'../../InstallArea/armv7l-fc21-gcc49-opt/include/GaudiKernel/KeyedTraits.h'
p271
sS'../../../../GaudiKernel/GaudiKernel/StatusCode.h'
p272
S'../../InstallArea/armv7l-fc21-gcc49-opt/include/GaudiKernel/StatusCode.h'
p273
sS'../../../../GaudiKernel/GaudiKernel/Tokenizer.h'
p274
S'../../InstallArea/armv7l-fc21-gcc49-opt/include/GaudiKernel/Tokenizer.h'
p275
sS'../../../../GaudiKernel/GaudiKernel/IFactory.h'
p276
S'../../InstallArea/armv7l-fc21-gcc49-opt/include/GaudiKernel/IFactory.h'
p277
sS'../../../../GaudiKernel/GaudiKernel/GenericAddress.h'
p278
S'../../InstallArea/armv7l-fc21-gcc49-opt/include/GaudiKernel/GenericAddress.h'
p279
sS'../../../../GaudiKernel/GaudiKernel/Environment.h'
p280
S'../../InstallArea/armv7l-fc21-gcc49-opt/include/GaudiKernel/Environment.h'
p281
sS'../../../../GaudiKernel/GaudiKernel/Algorithm.h'
p282
S'../../InstallArea/armv7l-fc21-gcc49-opt/include/GaudiKernel/Algorithm.h'
p283
sS'../../../../GaudiKernel/GaudiKernel/HistoryObj.h'
p284
S'../../InstallArea/armv7l-fc21-gcc49-opt/include/GaudiKernel/HistoryObj.h'
p285
sS'../../../../GaudiKernel/GaudiKernel/Point3DTypes.h'
p286
S'../../InstallArea/armv7l-fc21-gcc49-opt/include/GaudiKernel/Point3DTypes.h'
p287
sS'../../../../GaudiKernel/GaudiKernel/AlgFactory.h'
p288
S'../../InstallArea/armv7l-fc21-gcc49-opt/include/GaudiKernel/AlgFactory.h'
p289
sS'../../../../GaudiKernel/GaudiKernel/StatEntity.h'
p290
S'../../InstallArea/armv7l-fc21-gcc49-opt/include/GaudiKernel/StatEntity.h'
p291
sS'../../../../GaudiKernel/GaudiKernel/IDataSelector.h'
p292
S'../../InstallArea/armv7l-fc21-gcc49-opt/include/GaudiKernel/IDataSelector.h'
p293
sS'../../../../GaudiKernel/GaudiKernel/NTuple.h'
p294
S'../../InstallArea/armv7l-fc21-gcc49-opt/include/GaudiKernel/NTuple.h'
p295
sS'../../../../GaudiKernel/GaudiKernel/Sleep.h'
p296
S'../../InstallArea/armv7l-fc21-gcc49-opt/include/GaudiKernel/Sleep.h'
p297
sS'../../../../GaudiKernel/GaudiKernel/PropertyVerifier.h'
p298
S'../../InstallArea/armv7l-fc21-gcc49-opt/include/GaudiKernel/PropertyVerifier.h'
p299
sS'../../../../GaudiKernel/GaudiKernel/PropertyTypeTraits.h'
p300
S'../../InstallArea/armv7l-fc21-gcc49-opt/include/GaudiKernel/PropertyTypeTraits.h'
p301
sS'../../../../GaudiKernel/GaudiKernel/ICounterSummarySvc.h'
p302
S'../../InstallArea/armv7l-fc21-gcc49-opt/include/GaudiKernel/ICounterSummarySvc.h'
p303
sS'../../../../GaudiKernel/GaudiKernel/xtoa.h'
p304
S'../../InstallArea/armv7l-fc21-gcc49-opt/include/GaudiKernel/xtoa.h'
p305
sS'../../../../GaudiKernel/GaudiKernel/Map.h'
p306
S'../../InstallArea/armv7l-fc21-gcc49-opt/include/GaudiKernel/Map.h'
p307
sS'../../../../GaudiKernel/GaudiKernel/SmartRefVector.h'
p308
S'../../InstallArea/armv7l-fc21-gcc49-opt/include/GaudiKernel/SmartRefVector.h'
p309
sS'../../../../GaudiKernel/GaudiKernel/Plane3DTypes.h'
p310
S'../../InstallArea/armv7l-fc21-gcc49-opt/include/GaudiKernel/Plane3DTypes.h'
p311
sS'../../../../GaudiKernel/GaudiKernel/CommonMessaging.h'
p312
S'../../InstallArea/armv7l-fc21-gcc49-opt/include/GaudiKernel/CommonMessaging.h'
p313
sS'../../../../GaudiKernel/GaudiKernel/IChronoSvc.h'
p314
S'../../InstallArea/armv7l-fc21-gcc49-opt/include/GaudiKernel/IChronoSvc.h'
p315
sS'../../../../GaudiKernel/GaudiKernel/BoostArrayAsProperty.h'
p316
S'../../InstallArea/armv7l-fc21-gcc49-opt/include/GaudiKernel/BoostArrayAsProperty.h'
p317
sS'../../../../GaudiKernel/GaudiKernel/KeyedObject.h'
p318
S'../../InstallArea/armv7l-fc21-gcc49-opt/include/GaudiKernel/KeyedObject.h'
p319
sS'../../../../GaudiKernel/GaudiKernel/RndmGenerators.h'
p320
S'../../InstallArea/armv7l-fc21-gcc49-opt/include/GaudiKernel/RndmGenerators.h'
p321
sS'../../../../GaudiKernel/GaudiKernel/LockedChrono.h'
p322
S'../../InstallArea/armv7l-fc21-gcc49-opt/include/GaudiKernel/LockedChrono.h'
p323
sS'../../../../GaudiKernel/GaudiKernel/Memory.h'
p324
S'../../InstallArea/armv7l-fc21-gcc49-opt/include/GaudiKernel/Memory.h'
p325
sS'../../../../GaudiKernel/GaudiKernel/Lomont.h'
p326
S'../../InstallArea/armv7l-fc21-gcc49-opt/include/GaudiKernel/Lomont.h'
p327
sS'../../../../GaudiKernel/GaudiKernel/AllocatorPool.h'
p328
S'../../InstallArea/armv7l-fc21-gcc49-opt/include/GaudiKernel/AllocatorPool.h'
p329
sS'../../../../GaudiKernel/GaudiKernel/IDataStreamTool.h'
p330
S'../../InstallArea/armv7l-fc21-gcc49-opt/include/GaudiKernel/IDataStreamTool.h'
p331
sS'../../../../GaudiKernel/GaudiKernel/DataHistory.h'
p332
S'../../InstallArea/armv7l-fc21-gcc49-opt/include/GaudiKernel/DataHistory.h'
p333
sS'../../../../GaudiKernel/GaudiKernel/INTupleSvc.h'
p334
S'../../InstallArea/armv7l-fc21-gcc49-opt/include/GaudiKernel/INTupleSvc.h'
p335
sS'../../../../GaudiKernel/GaudiKernel/ISvcManager.h'
p336
S'../../InstallArea/armv7l-fc21-gcc49-opt/include/GaudiKernel/ISvcManager.h'
p337
sS'../../../../GaudiKernel/GaudiKernel/GenericMatrixTypes.h'
p338
S'../../InstallArea/armv7l-fc21-gcc49-opt/include/GaudiKernel/GenericMatrixTypes.h'
p339
sS'../../../../GaudiKernel/GaudiKernel/IRndmGen.h'
p340
S'../../InstallArea/armv7l-fc21-gcc49-opt/include/GaudiKernel/IRndmGen.h'
p341
sS'../../../../GaudiKernel/GaudiKernel/IInterface.h'
p342
S'../../InstallArea/armv7l-fc21-gcc49-opt/include/GaudiKernel/IInterface.h'
p343
sS'../../../../GaudiKernel/GaudiKernel/SmartDataObjectPtr.h'
p344
S'../../InstallArea/armv7l-fc21-gcc49-opt/include/GaudiKernel/SmartDataObjectPtr.h'
p345
sS'../../../../GaudiKernel/GaudiKernel/ObjectList.h'
p346
S'../../InstallArea/armv7l-fc21-gcc49-opt/include/GaudiKernel/ObjectList.h'
p347
sS'../../../../GaudiKernel/GaudiKernel/INamedInterface.h'
p348
S'../../InstallArea/armv7l-fc21-gcc49-opt/include/GaudiKernel/INamedInterface.h'
p349
sS'../../../../GaudiKernel/GaudiKernel/ConversionSvc.h'
p350
S'../../InstallArea/armv7l-fc21-gcc49-opt/include/GaudiKernel/ConversionSvc.h'
p351
sS'../../../../GaudiKernel/GaudiKernel/DeclareFactoryEntries.h'
p352
S'../../InstallArea/armv7l-fc21-gcc49-opt/include/GaudiKernel/DeclareFactoryEntries.h'
p353
sS'../../../../GaudiKernel/GaudiKernel/ServiceHistory.h'
p354
S'../../InstallArea/armv7l-fc21-gcc49-opt/include/GaudiKernel/ServiceHistory.h'
p355
sS'../../../../GaudiKernel/GaudiKernel/HistoDef.h'
p356
S'../../InstallArea/armv7l-fc21-gcc49-opt/include/GaudiKernel/HistoDef.h'
p357
sS'../../../../GaudiKernel/GaudiKernel/ListItem.h'
p358
S'../../InstallArea/armv7l-fc21-gcc49-opt/include/GaudiKernel/ListItem.h'
p359
sS'../../../../GaudiKernel/GaudiKernel/Message.h'
p360
S'../../InstallArea/armv7l-fc21-gcc49-opt/include/GaudiKernel/Message.h'
p361
sS'../../../../GaudiKernel/GaudiKernel/SmartDataStorePtr.h'
p362
S'../../InstallArea/armv7l-fc21-gcc49-opt/include/GaudiKernel/SmartDataStorePtr.h'
p363
sS'../../../../GaudiKernel/GaudiKernel/IUpdateManagerSvc.h'
p364
S'../../InstallArea/armv7l-fc21-gcc49-opt/include/GaudiKernel/IUpdateManagerSvc.h'
p365
sS'../../../../GaudiKernel/GaudiKernel/ISelectStatement.h'
p366
S'../../InstallArea/armv7l-fc21-gcc49-opt/include/GaudiKernel/ISelectStatement.h'
p367
sS'../../../../GaudiKernel/GaudiKernel/ParticleProperty.h'
p368
S'../../InstallArea/armv7l-fc21-gcc49-opt/include/GaudiKernel/ParticleProperty.h'
p369
sS'../../../../GaudiKernel/GaudiKernel/Incident.h'
p370
S'../../InstallArea/armv7l-fc21-gcc49-opt/include/GaudiKernel/Incident.h'
p371
sS'../../../../GaudiKernel/GaudiKernel/Hash.h'
p372
S'../../InstallArea/armv7l-fc21-gcc49-opt/include/GaudiKernel/Hash.h'
p373
sS'../../../../GaudiKernel/GaudiKernel/Coord3DTypes.h'
p374
S'../../InstallArea/armv7l-fc21-gcc49-opt/include/GaudiKernel/Coord3DTypes.h'
p375
sS'../../../../GaudiKernel/GaudiKernel/DataStreamTool.h'
p376
S'../../InstallArea/armv7l-fc21-gcc49-opt/include/GaudiKernel/DataStreamTool.h'
p377
sS'../../../../GaudiKernel/GaudiKernel/SVectorAsProperty.h'
p378
S'../../InstallArea/armv7l-fc21-gcc49-opt/include/GaudiKernel/SVectorAsProperty.h'
p379
sS'../../../../GaudiKernel/GaudiKernel/RegistryEntry.h'
p380
S'../../InstallArea/armv7l-fc21-gcc49-opt/include/GaudiKernel/RegistryEntry.h'
p381
sS'../../../../GaudiKernel/GaudiKernel/swab.h'
p382
S'../../InstallArea/armv7l-fc21-gcc49-opt/include/GaudiKernel/swab.h'
p383
sS'../../../../GaudiKernel/GaudiKernel/StringKey.h'
p384
S'../../InstallArea/armv7l-fc21-gcc49-opt/include/GaudiKernel/StringKey.h'
p385
sS'../../../../GaudiKernel/GaudiKernel/WatchdogThread.h'
p386
S'../../InstallArea/armv7l-fc21-gcc49-opt/include/GaudiKernel/WatchdogThread.h'
p387
sS'../../../../GaudiKernel/GaudiKernel/IDetDataSvc.h'
p388
S'../../InstallArea/armv7l-fc21-gcc49-opt/include/GaudiKernel/IDetDataSvc.h'
p389
sS'../../../../GaudiKernel/GaudiKernel/MsgStream.h'
p390
S'../../InstallArea/armv7l-fc21-gcc49-opt/include/GaudiKernel/MsgStream.h'
p391
sS'../../../../GaudiKernel/GaudiKernel/FindByMassRange.h'
p392
S'../../InstallArea/armv7l-fc21-gcc49-opt/include/GaudiKernel/FindByMassRange.h'
p393
sS'../../../../GaudiKernel/GaudiKernel/IssueSeverity.h'
p394
S'../../InstallArea/armv7l-fc21-gcc49-opt/include/GaudiKernel/IssueSeverity.h'
p395
sS'../../../../GaudiKernel/GaudiKernel/IAuditor.h'
p396
S'../../InstallArea/armv7l-fc21-gcc49-opt/include/GaudiKernel/IAuditor.h'
p397
sS'../../../../GaudiKernel/GaudiKernel/IParticlePropertySvc.h'
p398
S'../../InstallArea/armv7l-fc21-gcc49-opt/include/GaudiKernel/IParticlePropertySvc.h'
p399
sS'../../../../GaudiKernel/GaudiKernel/ToolHandle.h'
p400
S'../../InstallArea/armv7l-fc21-gcc49-opt/include/GaudiKernel/ToolHandle.h'
p401
sS'../../../../GaudiKernel/GaudiKernel/Range.h'
p402
S'../../InstallArea/armv7l-fc21-gcc49-opt/include/GaudiKernel/Range.h'
p403
sS'../../../../GaudiKernel/GaudiKernel/IAuditorSvc.h'
p404
S'../../InstallArea/armv7l-fc21-gcc49-opt/include/GaudiKernel/IAuditorSvc.h'
p405
sS'../../../../GaudiKernel/GaudiKernel/NTupleItems.h'
p406
S'../../InstallArea/armv7l-fc21-gcc49-opt/include/GaudiKernel/NTupleItems.h'
p407
sS'../../../../GaudiKernel/GaudiKernel/AudFactory.h'
p408
S'../../InstallArea/armv7l-fc21-gcc49-opt/include/GaudiKernel/AudFactory.h'
p409
sS'../../../../GaudiKernel/GaudiKernel/IIoComponent.h'
p410
S'../../InstallArea/armv7l-fc21-gcc49-opt/include/GaudiKernel/IIoComponent.h'
p411
sS'../../../../GaudiKernel/GaudiKernel/IRndmGenSvc.h'
p412
S'../../InstallArea/armv7l-fc21-gcc49-opt/include/GaudiKernel/IRndmGenSvc.h'
p413
sS'../../../../GaudiKernel/GaudiKernel/IHistogramSvc.h'
p414
S'../../InstallArea/armv7l-fc21-gcc49-opt/include/GaudiKernel/IHistogramSvc.h'
p415
sS'../../../../GaudiKernel/GaudiKernel/INTuple.h'
p416
S'../../InstallArea/armv7l-fc21-gcc49-opt/include/GaudiKernel/INTuple.h'
p417
sS'../../../../GaudiKernel/GaudiKernel/DataStoreItem.h'
p418
S'../../InstallArea/armv7l-fc21-gcc49-opt/include/GaudiKernel/DataStoreItem.h'
p419
sS'../../../../GaudiKernel/GaudiKernel/GrammarsV2.h'
p420
S'../../InstallArea/armv7l-fc21-gcc49-opt/include/GaudiKernel/GrammarsV2.h'
p421
sS'../../../../GaudiKernel/GaudiKernel/IPartitionControl.h'
p422
S'../../InstallArea/armv7l-fc21-gcc49-opt/include/GaudiKernel/IPartitionControl.h'
p423
sS'../../../../GaudiKernel/GaudiKernel/IService.h'
p424
S'../../InstallArea/armv7l-fc21-gcc49-opt/include/GaudiKernel/IService.h'
p425
sS'../../../../GaudiKernel/GaudiKernel/IRndmEngine.h'
p426
S'../../InstallArea/armv7l-fc21-gcc49-opt/include/GaudiKernel/IRndmEngine.h'
p427
sS'../../../../GaudiKernel/GaudiKernel/HistoProperty.h'
p428
S'../../InstallArea/armv7l-fc21-gcc49-opt/include/GaudiKernel/HistoProperty.h'
p429
sS'../../../../GaudiKernel/GaudiKernel/IIncidentListener.h'
p430
S'../../InstallArea/armv7l-fc21-gcc49-opt/include/GaudiKernel/IIncidentListener.h'
p431
sS'../../../../GaudiKernel/GaudiKernel/JobHistory.h'
p432
S'../../InstallArea/armv7l-fc21-gcc49-opt/include/GaudiKernel/JobHistory.h'
p433
sS'../../../../GaudiKernel/GaudiKernel/ISerialize.h'
p434
S'../../InstallArea/armv7l-fc21-gcc49-opt/include/GaudiKernel/ISerialize.h'
p435
sS'../../../../GaudiKernel/GaudiKernel/SharedObjectsContainer.h'
p436
S'../../InstallArea/armv7l-fc21-gcc49-opt/include/GaudiKernel/SharedObjectsContainer.h'
p437
sS'../../../../GaudiKernel/GaudiKernel/implements.h'
p438
S'../../InstallArea/armv7l-fc21-gcc49-opt/include/GaudiKernel/implements.h'
p439
sS'../../../../GaudiKernel/GaudiKernel/Allocator.h'
p440
S'../../InstallArea/armv7l-fc21-gcc49-opt/include/GaudiKernel/Allocator.h'
p441
sS'../../../../GaudiKernel/GaudiKernel/IAlgContextSvc.h'
p442
S'../../InstallArea/armv7l-fc21-gcc49-opt/include/GaudiKernel/IAlgContextSvc.h'
p443
sS'../../../../GaudiKernel/GaudiKernel/IStatSvc.h'
p444
S'../../InstallArea/armv7l-fc21-gcc49-opt/include/GaudiKernel/IStatSvc.h'
p445
sS'../../../../GaudiKernel/GaudiKernel/ModuleIncident.h'
p446
S'../../InstallArea/armv7l-fc21-gcc49-opt/include/GaudiKernel/ModuleIncident.h'
p447
sS'../../../../GaudiKernel/GaudiKernel/AlgorithmHistory.h'
p448
S'../../InstallArea/armv7l-fc21-gcc49-opt/include/GaudiKernel/AlgorithmHistory.h'
p449
sS'../../../../GaudiKernel/GaudiKernel/Transform4DTypes.h'
p450
S'../../InstallArea/armv7l-fc21-gcc49-opt/include/GaudiKernel/Transform4DTypes.h'
p451
sS'../../../../GaudiKernel/GaudiKernel/IPartPropSvc.h'
p452
S'../../InstallArea/armv7l-fc21-gcc49-opt/include/GaudiKernel/IPartPropSvc.h'
p453
sS'../../../../GaudiKernel/GaudiKernel/Auditor.h'
p454
S'../../InstallArea/armv7l-fc21-gcc49-opt/include/GaudiKernel/Auditor.h'
p455
sS'../../../../GaudiKernel/GaudiKernel/PropertyMgr.h'
p456
S'../../InstallArea/armv7l-fc21-gcc49-opt/include/GaudiKernel/PropertyMgr.h'
p457
sS'../../../../GaudiKernel/GaudiKernel/Bootstrap.h'
p458
S'../../InstallArea/armv7l-fc21-gcc49-opt/include/GaudiKernel/Bootstrap.h'
p459
sS'../../../../GaudiKernel/GaudiKernel/FileIncident.h'
p460
S'../../InstallArea/armv7l-fc21-gcc49-opt/include/GaudiKernel/FileIncident.h'
p461
sS'../../../../GaudiKernel/GaudiKernel/strcasecmp.h'
p462
S'../../InstallArea/armv7l-fc21-gcc49-opt/include/GaudiKernel/strcasecmp.h'
p463
sS'../../../../GaudiKernel/GaudiKernel/IInspectable.h'
p464
S'../../InstallArea/armv7l-fc21-gcc49-opt/include/GaudiKernel/IInspectable.h'
p465
sS'../../../../GaudiKernel/GaudiKernel/Vector4DTypes.h'
p466
S'../../InstallArea/armv7l-fc21-gcc49-opt/include/GaudiKernel/Vector4DTypes.h'
p467
sS'../../../../GaudiKernel/GaudiKernel/IComponentManager.h'
p468
S'../../InstallArea/armv7l-fc21-gcc49-opt/include/GaudiKernel/IComponentManager.h'
p469
sS'../../../../GaudiKernel/GaudiKernel/SerializeSTL.h'
p470
S'../../InstallArea/armv7l-fc21-gcc49-opt/include/GaudiKernel/SerializeSTL.h'
p471
sS'../../../../GaudiKernel/GaudiKernel/CnvFactory.h'
p472
S'../../InstallArea/armv7l-fc21-gcc49-opt/include/GaudiKernel/CnvFactory.h'
p473
sS'../../../../GaudiKernel/GaudiKernel/KeyedObjectManager.h'
p474
S'../../InstallArea/armv7l-fc21-gcc49-opt/include/GaudiKernel/KeyedObjectManager.h'
p475
sS'../../../../GaudiKernel/GaudiKernel/GenericVectorTypes.h'
p476
S'../../InstallArea/armv7l-fc21-gcc49-opt/include/GaudiKernel/GenericVectorTypes.h'
p477
sS'../../../../GaudiKernel/GaudiKernel/DirSearchPath.h'
p478
S'../../InstallArea/armv7l-fc21-gcc49-opt/include/GaudiKernel/DirSearchPath.h'
p479
sS'../../../../GaudiKernel/GaudiKernel/UpdateManagerException.h'
p480
S'../../InstallArea/armv7l-fc21-gcc49-opt/include/GaudiKernel/UpdateManagerException.h'
p481
ssS'../../../GaudiKernel/armv7l-fc21-gcc49-opt/libGaudiKernelDict.so'
p482
S'../../InstallArea/armv7l-fc21-gcc49-opt/lib/libGaudiKernelDict.so'
p483
sS'../../../GaudiKernel/armv7l-fc21-gcc49-opt/libGaudiKernel.so'
p484
S'../../InstallArea/armv7l-fc21-gcc49-opt/lib/libGaudiKernel.so'
p485
sS'../../../GaudiKernel/armv7l-fc21-gcc49-opt/genconf.exe'
p486
S'../../InstallArea/armv7l-fc21-gcc49-opt/bin/genconf.exe'
p487
ssb.