(i__main__
LogFile
p0
(dp1
S'_installed_files'
p2
(dp3
S'../../../GaudiAlg/armv7l-fc21-gcc49-opt/libGaudiAlgLib.so'
p4
S'../../InstallArea/armv7l-fc21-gcc49-opt/lib/libGaudiAlgLib.so'
p5
sS'../../../GaudiAlg/GaudiAlg'
p6
(dp7
S'../../../../GaudiAlg/GaudiAlg/EventCounter.h'
p8
S'../../InstallArea/armv7l-fc21-gcc49-opt/include/GaudiAlg/EventCounter.h'
p9
sS'../../../../GaudiAlg/GaudiAlg/GetAlgs.h'
p10
S'../../InstallArea/armv7l-fc21-gcc49-opt/include/GaudiAlg/GetAlgs.h'
p11
sS'../../../../GaudiAlg/GaudiAlg/Fill.h'
p12
S'../../InstallArea/armv7l-fc21-gcc49-opt/include/GaudiAlg/Fill.h'
p13
sS'../../../../GaudiAlg/GaudiAlg/TupleID.h'
p14
S'../../InstallArea/armv7l-fc21-gcc49-opt/include/GaudiAlg/TupleID.h'
p15
sS'../../../../GaudiAlg/GaudiAlg/GaudiHistos_2DVariableBinning.icpp'
p16
S'../../InstallArea/armv7l-fc21-gcc49-opt/include/GaudiAlg/GaudiHistos_2DVariableBinning.icpp'
p17
sS'../../../../GaudiAlg/GaudiAlg/GaudiAlgorithm.h'
p18
S'../../InstallArea/armv7l-fc21-gcc49-opt/include/GaudiAlg/GaudiAlgorithm.h'
p19
sS'../../../../GaudiAlg/GaudiAlg/CheckForNaN.h'
p20
S'../../InstallArea/armv7l-fc21-gcc49-opt/include/GaudiAlg/CheckForNaN.h'
p21
sS'../../../../GaudiAlg/GaudiAlg/GaudiHistos_1DProfVariableBinning.icpp'
p22
S'../../InstallArea/armv7l-fc21-gcc49-opt/include/GaudiAlg/GaudiHistos_1DProfVariableBinning.icpp'
p23
sS'../../../../GaudiAlg/GaudiAlg/TuplePut.h'
p24
S'../../InstallArea/armv7l-fc21-gcc49-opt/include/GaudiAlg/TuplePut.h'
p25
sS'../../../../GaudiAlg/GaudiAlg/GaudiHistoID.h'
p26
S'../../InstallArea/armv7l-fc21-gcc49-opt/include/GaudiAlg/GaudiHistoID.h'
p27
sS'../../../../GaudiAlg/GaudiAlg/GaudiTupleAlg.h'
p28
S'../../InstallArea/armv7l-fc21-gcc49-opt/include/GaudiAlg/GaudiTupleAlg.h'
p29
sS'../../../../GaudiAlg/GaudiAlg/GaudiHistoTool.h'
p30
S'../../InstallArea/armv7l-fc21-gcc49-opt/include/GaudiAlg/GaudiHistoTool.h'
p31
sS'../../../../GaudiAlg/GaudiAlg/GaudiHistos_3DFixedBinning.icpp'
p32
S'../../InstallArea/armv7l-fc21-gcc49-opt/include/GaudiAlg/GaudiHistos_3DFixedBinning.icpp'
p33
sS'../../../../GaudiAlg/GaudiAlg/TupleObj.h'
p34
S'../../InstallArea/armv7l-fc21-gcc49-opt/include/GaudiAlg/TupleObj.h'
p35
sS'../../../../GaudiAlg/GaudiAlg/Tuples.h'
p36
S'../../InstallArea/armv7l-fc21-gcc49-opt/include/GaudiAlg/Tuples.h'
p37
sS'../../../../GaudiAlg/GaudiAlg/IErrorTool.h'
p38
S'../../InstallArea/armv7l-fc21-gcc49-opt/include/GaudiAlg/IErrorTool.h'
p39
sS'../../../../GaudiAlg/GaudiAlg/GaudiHistos_1DProfFixedBinning.icpp'
p40
S'../../InstallArea/armv7l-fc21-gcc49-opt/include/GaudiAlg/GaudiHistos_1DProfFixedBinning.icpp'
p41
sS'../../../../GaudiAlg/GaudiAlg/GaudiHistos_1DVariableBinning.icpp'
p42
S'../../InstallArea/armv7l-fc21-gcc49-opt/include/GaudiAlg/GaudiHistos_1DVariableBinning.icpp'
p43
sS'../../../../GaudiAlg/GaudiAlg/GaudiCommon.h'
p44
S'../../InstallArea/armv7l-fc21-gcc49-opt/include/GaudiAlg/GaudiCommon.h'
p45
sS'../../../../GaudiAlg/GaudiAlg/GaudiHistos_2DFixedBinning.icpp'
p46
S'../../InstallArea/armv7l-fc21-gcc49-opt/include/GaudiAlg/GaudiHistos_2DFixedBinning.icpp'
p47
sS'../../../../GaudiAlg/GaudiAlg/GaudiHistos_2DProfVariableBinning.icpp'
p48
S'../../InstallArea/armv7l-fc21-gcc49-opt/include/GaudiAlg/GaudiHistos_2DProfVariableBinning.icpp'
p49
sS'../../../../GaudiAlg/GaudiAlg/IHistoTool.h'
p50
S'../../InstallArea/armv7l-fc21-gcc49-opt/include/GaudiAlg/IHistoTool.h'
p51
sS'../../../../GaudiAlg/GaudiAlg/GaudiSequencer.h'
p52
S'../../InstallArea/armv7l-fc21-gcc49-opt/include/GaudiAlg/GaudiSequencer.h'
p53
sS'../../../../GaudiAlg/GaudiAlg/GaudiHistos_2DProfFixedBinning.icpp'
p54
S'../../InstallArea/armv7l-fc21-gcc49-opt/include/GaudiAlg/GaudiHistos_2DProfFixedBinning.icpp'
p55
sS'../../../../GaudiAlg/GaudiAlg/HbookName.h'
p56
S'../../InstallArea/armv7l-fc21-gcc49-opt/include/GaudiAlg/HbookName.h'
p57
sS'../../../../GaudiAlg/GaudiAlg/Prescaler.h'
p58
S'../../InstallArea/armv7l-fc21-gcc49-opt/include/GaudiAlg/Prescaler.h'
p59
sS'../../../../GaudiAlg/GaudiAlg/ITupleTool.h'
p60
S'../../InstallArea/armv7l-fc21-gcc49-opt/include/GaudiAlg/ITupleTool.h'
p61
sS'../../../../GaudiAlg/GaudiAlg/GaudiTupleTool.h'
p62
S'../../InstallArea/armv7l-fc21-gcc49-opt/include/GaudiAlg/GaudiTupleTool.h'
p63
sS'../../../../GaudiAlg/GaudiAlg/GaudiHistos_3DVariableBinning.icpp'
p64
S'../../InstallArea/armv7l-fc21-gcc49-opt/include/GaudiAlg/GaudiHistos_3DVariableBinning.icpp'
p65
sS'../../../../GaudiAlg/GaudiAlg/Tuple.h'
p66
S'../../InstallArea/armv7l-fc21-gcc49-opt/include/GaudiAlg/Tuple.h'
p67
sS'../../../../GaudiAlg/GaudiAlg/GaudiHistos_1DFixedBinning.icpp'
p68
S'../../InstallArea/armv7l-fc21-gcc49-opt/include/GaudiAlg/GaudiHistos_1DFixedBinning.icpp'
p69
sS'../../../../GaudiAlg/GaudiAlg/GetData.h'
p70
S'../../InstallArea/armv7l-fc21-gcc49-opt/include/GaudiAlg/GetData.h'
p71
sS'../../../../GaudiAlg/GaudiAlg/Print.h'
p72
S'../../InstallArea/armv7l-fc21-gcc49-opt/include/GaudiAlg/Print.h'
p73
sS'../../../../GaudiAlg/GaudiAlg/IGenericTool.h'
p74
S'../../InstallArea/armv7l-fc21-gcc49-opt/include/GaudiAlg/IGenericTool.h'
p75
sS'../../../../GaudiAlg/GaudiAlg/ISequencerTimerTool.h'
p76
S'../../InstallArea/armv7l-fc21-gcc49-opt/include/GaudiAlg/ISequencerTimerTool.h'
p77
sS'../../../../GaudiAlg/GaudiAlg/GaudiHistos.icpp'
p78
S'../../InstallArea/armv7l-fc21-gcc49-opt/include/GaudiAlg/GaudiHistos.icpp'
p79
sS'../../../../GaudiAlg/GaudiAlg/Maps.h'
p80
S'../../InstallArea/armv7l-fc21-gcc49-opt/include/GaudiAlg/Maps.h'
p81
sS'../../../../GaudiAlg/GaudiAlg/GaudiAlg.h'
p82
S'../../InstallArea/armv7l-fc21-gcc49-opt/include/GaudiAlg/GaudiAlg.h'
p83
sS'../../../../GaudiAlg/GaudiAlg/GetAlg.h'
p84
S'../../InstallArea/armv7l-fc21-gcc49-opt/include/GaudiAlg/GetAlg.h'
p85
sS'../../../../GaudiAlg/GaudiAlg/GaudiHistos.h'
p86
S'../../InstallArea/armv7l-fc21-gcc49-opt/include/GaudiAlg/GaudiHistos.h'
p87
sS'../../../../GaudiAlg/GaudiAlg/TupleDetail.h'
p88
S'../../InstallArea/armv7l-fc21-gcc49-opt/include/GaudiAlg/TupleDetail.h'
p89
sS'../../../../GaudiAlg/GaudiAlg/GaudiTool.h'
p90
S'../../InstallArea/armv7l-fc21-gcc49-opt/include/GaudiAlg/GaudiTool.h'
p91
sS'../../../../GaudiAlg/GaudiAlg/GaudiTuples.h'
p92
S'../../InstallArea/armv7l-fc21-gcc49-opt/include/GaudiAlg/GaudiTuples.h'
p93
sS'../../../../GaudiAlg/GaudiAlg/Sequencer.h'
p94
S'../../InstallArea/armv7l-fc21-gcc49-opt/include/GaudiAlg/Sequencer.h'
p95
sS'../../../../GaudiAlg/GaudiAlg/GaudiTuples.icpp'
p96
S'../../InstallArea/armv7l-fc21-gcc49-opt/include/GaudiAlg/GaudiTuples.icpp'
p97
sS'../../../../GaudiAlg/GaudiAlg/GaudiHistoAlg.h'
p98
S'../../InstallArea/armv7l-fc21-gcc49-opt/include/GaudiAlg/GaudiHistoAlg.h'
p99
sS'../../../../GaudiAlg/GaudiAlg/GaudiCommonImp.h'
p100
S'../../InstallArea/armv7l-fc21-gcc49-opt/include/GaudiAlg/GaudiCommonImp.h'
p101
sS'../../../../GaudiAlg/GaudiAlg/HistoID.h'
p102
S'../../InstallArea/armv7l-fc21-gcc49-opt/include/GaudiAlg/HistoID.h'
p103
ssS'../../../GaudiAlg/armv7l-fc21-gcc49-opt/libGaudiAlg.so'
p104
S'../../InstallArea/armv7l-fc21-gcc49-opt/lib/libGaudiAlg.so'
p105
sS'../../../../GaudiPolicy/cmt/fragments/__init__.py'
p106
S'../../InstallArea/armv7l-fc21-gcc49-opt/python/GaudiAlg/__init__.py'
p107
sS'../../../GaudiAlg/armv7l-fc21-gcc49-opt/genConf/GaudiAlg'
p108
(dp109
S'../../../../GaudiAlg/armv7l-fc21-gcc49-opt/genConf/GaudiAlg/GaudiAlgConf.py'
p110
S'../../InstallArea/armv7l-fc21-gcc49-opt/python/GaudiAlg/GaudiAlgConf.py'
p111
sssb.