(i__main__
LogFile
p0
(dp1
S'_installed_files'
p2
(dp3
S'../../../../GaudiPolicy/cmt/fragments/__init__.py'
p4
S'../../InstallArea/armv7l-fc21-gcc49-opt/python/GaudiMonitor/__init__.py'
p5
sS'../../../GaudiMonitor/armv7l-fc21-gcc49-opt/genConf/GaudiMonitor'
p6
(dp7
S'../../../../GaudiMonitor/armv7l-fc21-gcc49-opt/genConf/GaudiMonitor/GaudiMonitorConf.py'
p8
S'../../InstallArea/armv7l-fc21-gcc49-opt/python/GaudiMonitor/GaudiMonitorConf.py'
p9
ssS'../../../GaudiMonitor/armv7l-fc21-gcc49-opt/libGaudiMonitor.so'
p10
S'../../InstallArea/armv7l-fc21-gcc49-opt/lib/libGaudiMonitor.so'
p11
ssb.