(i__main__
LogFile
p0
(dp1
S'_installed_files'
p2
(dp3
S'../../../GaudiPartProp/armv7l-fc21-gcc49-opt/libGaudiPartProp.so'
p4
S'../../InstallArea/armv7l-fc21-gcc49-opt/lib/libGaudiPartProp.so'
p5
sS'../../../../GaudiPolicy/cmt/fragments/__init__.py'
p6
S'../../InstallArea/armv7l-fc21-gcc49-opt/python/GaudiPartProp/__init__.py'
p7
sS'../../../GaudiPartProp/armv7l-fc21-gcc49-opt/genConf/GaudiPartProp'
p8
(dp9
S'../../../../GaudiPartProp/armv7l-fc21-gcc49-opt/genConf/GaudiPartProp/GaudiPartPropConf.py'
p10
S'../../InstallArea/armv7l-fc21-gcc49-opt/python/GaudiPartProp/GaudiPartPropConf.py'
p11
sssb.