(i__main__
LogFile
p0
(dp1
S'_installed_files'
p2
(dp3
S'../../../../PartPropSvc/share/PartPropSvc.py'
p4
S'../../InstallArea/armv7l-fc21-gcc49-opt/jobOptions/PartPropSvc/PartPropSvc.py'
p5
sS'../../../PartPropSvc/armv7l-fc21-gcc49-opt/libPartPropSvc.so'
p6
S'../../InstallArea/armv7l-fc21-gcc49-opt/lib/libPartPropSvc.so'
p7
sS'../../../PartPropSvc/armv7l-fc21-gcc49-opt/genConf/PartPropSvc'
p8
(dp9
S'../../../../PartPropSvc/armv7l-fc21-gcc49-opt/genConf/PartPropSvc/PartPropSvcConf.py'
p10
S'../../InstallArea/armv7l-fc21-gcc49-opt/python/PartPropSvc/PartPropSvcConf.py'
p11
ssS'../../../../GaudiPolicy/cmt/fragments/__init__.py'
p12
S'../../InstallArea/armv7l-fc21-gcc49-opt/python/PartPropSvc/__init__.py'
p13
ssb.