(i__main__
LogFile
p0
(dp1
S'_installed_files'
p2
(dp3
S'../../../../GaudiPolicy/cmt/fragments/__init__.py'
p4
S'../../InstallArea/armv7l-fc21-gcc49-opt/python/GaudiAud/__init__.py'
p5
sS'../../../GaudiAud/armv7l-fc21-gcc49-opt/genConf/GaudiAud'
p6
(dp7
S'../../../../GaudiAud/armv7l-fc21-gcc49-opt/genConf/GaudiAud/GaudiAudConf.py'
p8
S'../../InstallArea/armv7l-fc21-gcc49-opt/python/GaudiAud/GaudiAudConf.py'
p9
ssS'../../../GaudiAud/armv7l-fc21-gcc49-opt/libGaudiAud.so'
p10
S'../../InstallArea/armv7l-fc21-gcc49-opt/lib/libGaudiAud.so'
p11
ssb.